
./riscv/kernel:     file format elf64-littleriscv
./riscv/kernel
architecture: riscv:rv64, flags 0x00000112:
EXEC_P, HAS_SYMS, D_PAGED
start address 0x00000000000100b0

Program Header:
0x70000003 off    0x00000000000023c7 vaddr 0x0000000000000000 paddr 0x0000000000000000 align 2**0
         filesz 0x000000000000003d memsz 0x0000000000000000 flags r--
    LOAD off    0x0000000000000000 vaddr 0x0000000000010000 paddr 0x0000000000010000 align 2**12
         filesz 0x00000000000023ac memsz 0x00000000000023ac flags r-x

Sections:
Idx Name          Size      VMA               LMA               File off  Algn
  0 .text         00001164  00000000000100b0  00000000000100b0  000000b0  2**2
                  CONTENTS, ALLOC, LOAD, READONLY, CODE
  1 .eh_frame     0000017c  0000000000011218  0000000000011218  00001218  2**3
                  CONTENTS, ALLOC, LOAD, READONLY, DATA
  2 .sdata        00000018  0000000000012394  0000000000012394  00002394  2**2
                  CONTENTS, ALLOC, LOAD, READONLY, DATA
  3 .comment      0000001b  0000000000000000  0000000000000000  000023ac  2**0
                  CONTENTS, READONLY
  4 .riscv.attributes 0000003d  0000000000000000  0000000000000000  000023c7  2**0
                  CONTENTS, READONLY
SYMBOL TABLE:
00000000000100b0 l    d  .text	0000000000000000 .text
0000000000011218 l    d  .eh_frame	0000000000000000 .eh_frame
0000000000012394 l    d  .sdata	0000000000000000 .sdata
0000000000000000 l    d  .comment	0000000000000000 .comment
0000000000000000 l    d  .riscv.attributes	0000000000000000 .riscv.attributes
0000000000000000 l    df *ABS*	0000000000000000 main.cpp
00000000000100d0 l     F .text	00000000000002ec _ZL6kernelRK10KernelArgs.constprop.0
0000000000012b94 g       *ABS*	0000000000000000 __global_pointer$
0000000000012394 g       .sdata	0000000000000000 __SDATA_BEGIN__
0000000000010988  w    F .text	00000000000003f4 _Z10launch_rayRK7TreeletR8WorkItemPN3rtm3HitE
00000000000103bc  w    F .text	00000000000005cc _Z17intersect_treeletRK7TreeletRKN3rtm3RayERNS2_3HitEPjRj
0000000000010d7c  w    F .text	0000000000000498 _Z17intersect_bucketsPK7TreeletPN3rtm3HitE
00000000000123b0 g       .sdata	0000000000000000 __BSS_END__
00000000000123ac g       .sdata	0000000000000000 __bss_start
00000000000100b0 g     F .text	0000000000000020 main
0000000000012394 g       .sdata	0000000000000000 __DATA_BEGIN__
00000000000123ac g       .sdata	0000000000000000 _edata
00000000000123b0 g       .sdata	0000000000000000 _end



Disassembly of section .text:

00000000000100b0 <main>:
   100b0:	ff010113          	add	sp,sp,-16
   100b4:	00113423          	sd	ra,8(sp)
   100b8:	00000097          	auipc	ra,0x0
   100bc:	018080e7          	jalr	24(ra) # 100d0 <_ZL6kernelRK10KernelArgs.constprop.0>
   100c0:	00813083          	ld	ra,8(sp)
   100c4:	00000513          	li	a0,0
   100c8:	01010113          	add	sp,sp,16
   100cc:	00008067          	ret

00000000000100d0 <_ZL6kernelRK10KernelArgs.constprop.0>:
   100d0:	f9010113          	add	sp,sp,-112
   100d4:	06113423          	sd	ra,104(sp)
   100d8:	06813023          	sd	s0,96(sp)
   100dc:	04913c23          	sd	s1,88(sp)
   100e0:	05212227          	fsw	fs2,68(sp)
   100e4:	0000040b          	fchthrd	s0
   100e8:	10802483          	lw	s1,264(zero) # 108 <main-0xffa8>
   100ec:	0004041b          	sext.w	s0,s0
   100f0:	10947263          	bgeu	s0,s1,101f4 <_ZL6kernelRK10KernelArgs.constprop.0+0x124>
   100f4:	00012737          	lui	a4,0x12
   100f8:	05312027          	fsw	fs3,64(sp)
   100fc:	39872987          	flw	fs3,920(a4) # 12398 <__DATA_BEGIN__+0x4>
   10100:	00012737          	lui	a4,0x12
   10104:	39c72907          	flw	fs2,924(a4) # 1239c <__DATA_BEGIN__+0x8>
   10108:	000127b7          	lui	a5,0x12
   1010c:	00012737          	lui	a4,0x12
   10110:	04812627          	fsw	fs0,76(sp)
   10114:	04912427          	fsw	fs1,72(sp)
   10118:	3a47a407          	flw	fs0,932(a5) # 123a4 <__DATA_BEGIN__+0x10>
   1011c:	3a072487          	flw	fs1,928(a4) # 123a0 <__DATA_BEGIN__+0xc>
   10120:	10002783          	lw	a5,256(zero) # 100 <main-0xffb0>
   10124:	12002287          	flw	ft5,288(zero) # 120 <main-0xff90>
   10128:	11c02207          	flw	ft4,284(zero) # 11c <main-0xff94>
   1012c:	02f4573b          	divuw	a4,s0,a5
   10130:	13402687          	flw	fa3,308(zero) # 134 <main-0xff7c>
   10134:	13802187          	flw	ft3,312(zero) # 138 <main-0xff78>
   10138:	14802107          	flw	ft2,328(zero) # 148 <main-0xff68>
   1013c:	14c02087          	flw	ft1,332(zero) # 14c <main-0xff64>
   10140:	15002007          	flw	ft0,336(zero) # 150 <main-0xff60>
   10144:	14002507          	flw	fa0,320(zero) # 140 <main-0xff70>
   10148:	14402587          	flw	fa1,324(zero) # 144 <main-0xff6c>
   1014c:	13c02707          	flw	fa4,316(zero) # 13c <main-0xff74>
   10150:	13002607          	flw	fa2,304(zero) # 130 <main-0xff80>
   10154:	12802307          	flw	ft6,296(zero) # 128 <main-0xff88>
   10158:	12c02787          	flw	fa5,300(zero) # 12c <main-0xff84>
   1015c:	17003603          	ld	a2,368(zero) # 170 <main-0xff40>
   10160:	17803503          	ld	a0,376(zero) # 178 <main-0xff38>
   10164:	12402387          	flw	ft7,292(zero) # 124 <main-0xff8c>
   10168:	02812c23          	sw	s0,56(sp)
   1016c:	02f12027          	fsw	fa5,32(sp)
   10170:	01810593          	add	a1,sp,24
   10174:	00712c27          	fsw	ft7,24(sp)
   10178:	00612e27          	fsw	ft6,28(sp)
   1017c:	02912227          	fsw	fs1,36(sp)
   10180:	02812a27          	fsw	fs0,52(sp)
   10184:	02012e23          	sw	zero,60(sp)
   10188:	02f4743b          	remuw	s0,s0,a5
   1018c:	d01777d3          	fcvt.s.wu	fa5,a4
   10190:	0137f7d3          	fadd.s	fa5,fa5,fs3
   10194:	9057f7c3          	fmadd.s	fa5,fa5,ft5,fs2
   10198:	10a7f553          	fmul.s	fa0,fa5,fa0
   1019c:	10b7f5d3          	fmul.s	fa1,fa5,fa1
   101a0:	10e7f753          	fmul.s	fa4,fa5,fa4
   101a4:	d01477d3          	fcvt.s.wu	fa5,s0
   101a8:	0137f7d3          	fadd.s	fa5,fa5,fs3
   101ac:	9047f7c3          	fmadd.s	fa5,fa5,ft4,fs2
   101b0:	70c7f643          	fmadd.s	fa2,fa5,fa2,fa4
   101b4:	50d7f743          	fmadd.s	fa4,fa5,fa3,fa0
   101b8:	5837f7c3          	fmadd.s	fa5,fa5,ft3,fa1
   101bc:	082676d3          	fsub.s	fa3,fa2,ft2
   101c0:	08177753          	fsub.s	fa4,fa4,ft1
   101c4:	0807f7d3          	fsub.s	fa5,fa5,ft0
   101c8:	02d12427          	fsw	fa3,40(sp)
   101cc:	02e12627          	fsw	fa4,44(sp)
   101d0:	02f12827          	fsw	fa5,48(sp)
   101d4:	00000097          	auipc	ra,0x0
   101d8:	7b4080e7          	jalr	1972(ra) # 10988 <_Z10launch_rayRK7TreeletR8WorkItemPN3rtm3HitE>
   101dc:	0000040b          	fchthrd	s0
   101e0:	0004041b          	sext.w	s0,s0
   101e4:	f2946ee3          	bltu	s0,s1,10120 <_ZL6kernelRK10KernelArgs.constprop.0+0x50>
   101e8:	04c12407          	flw	fs0,76(sp)
   101ec:	04812487          	flw	fs1,72(sp)
   101f0:	04012987          	flw	fs3,64(sp)
   101f4:	17003583          	ld	a1,368(zero) # 170 <main-0xff40>
   101f8:	17803503          	ld	a0,376(zero) # 178 <main-0xff38>
   101fc:	00001097          	auipc	ra,0x1
   10200:	b80080e7          	jalr	-1152(ra) # 10d7c <_Z17intersect_bucketsPK7TreeletPN3rtm3HitE>
   10204:	00012c23          	sw	zero,24(sp)
   10208:	01812683          	lw	a3,24(sp)
   1020c:	3ff00793          	li	a5,1023
   10210:	3ff00713          	li	a4,1023
   10214:	00d7ec63          	bltu	a5,a3,1022c <_ZL6kernelRK10KernelArgs.constprop.0+0x15c>
   10218:	01812783          	lw	a5,24(sp)
   1021c:	0017879b          	addw	a5,a5,1
   10220:	00f12c23          	sw	a5,24(sp)
   10224:	01812783          	lw	a5,24(sp)
   10228:	fef778e3          	bgeu	a4,a5,10218 <_ZL6kernelRK10KernelArgs.constprop.0+0x148>
   1022c:	4094043b          	subw	s0,s0,s1
   10230:	06947a63          	bgeu	s0,s1,102a4 <_ZL6kernelRK10KernelArgs.constprop.0+0x1d4>
   10234:	000127b7          	lui	a5,0x12
   10238:	3a47a007          	flw	ft0,932(a5) # 123a4 <__DATA_BEGIN__+0x10>
   1023c:	000127b7          	lui	a5,0x12
   10240:	3947a507          	flw	fa0,916(a5) # 12394 <__DATA_BEGIN__>
   10244:	000127b7          	lui	a5,0x12
   10248:	3987a587          	flw	fa1,920(a5) # 12398 <__DATA_BEGIN__+0x4>
   1024c:	000127b7          	lui	a5,0x12
   10250:	17003603          	ld	a2,368(zero) # 170 <main-0xff40>
   10254:	16003683          	ld	a3,352(zero) # 160 <main-0xff50>
   10258:	f0000153          	fmv.w.x	ft2,zero
   1025c:	3a87a087          	flw	ft1,936(a5) # 123a8 <__DATA_BEGIN__+0x14>
   10260:	ff0005b7          	lui	a1,0xff000
   10264:	ff000537          	lui	a0,0xff000
   10268:	02041413          	sll	s0,s0,0x20
   1026c:	02045413          	srl	s0,s0,0x20
   10270:	00441793          	sll	a5,s0,0x4
   10274:	00f607b3          	add	a5,a2,a5
   10278:	0007c78b          	lhit	fa5,0(a5)
   1027c:	a00797d3          	flt.s	a5,fa5,ft0
   10280:	00241413          	sll	s0,s0,0x2
   10284:	01212627          	fsw	fs2,12(sp)
   10288:	00868433          	add	s0,a3,s0
   1028c:	02079863          	bnez	a5,102bc <_ZL6kernelRK10KernelArgs.constprop.0+0x1ec>
   10290:	00b42023          	sw	a1,0(s0)
   10294:	0000040b          	fchthrd	s0
   10298:	10802783          	lw	a5,264(zero) # 108 <main-0xffa8>
   1029c:	40f4043b          	subw	s0,s0,a5
   102a0:	fcf464e3          	bltu	s0,a5,10268 <_ZL6kernelRK10KernelArgs.constprop.0+0x198>
   102a4:	06813083          	ld	ra,104(sp)
   102a8:	06013403          	ld	s0,96(sp)
   102ac:	05813483          	ld	s1,88(sp)
   102b0:	04412907          	flw	fs2,68(sp)
   102b4:	07010113          	add	sp,sp,112
   102b8:	00008067          	ret
   102bc:	00c16783          	lwu	a5,12(sp)
   102c0:	00379713          	sll	a4,a5,0x3
   102c4:	00f70733          	add	a4,a4,a5
   102c8:	18003783          	ld	a5,384(zero) # 180 <main-0xff30>
   102cc:	00271713          	sll	a4,a4,0x2
   102d0:	00e787b3          	add	a5,a5,a4
   102d4:	0187a607          	flw	fa2,24(a5)
   102d8:	0207a307          	flw	ft6,32(a5)
   102dc:	0007a707          	flw	fa4,0(a5)
   102e0:	0147a787          	flw	fa5,20(a5)
   102e4:	01c7a287          	flw	ft5,28(a5)
   102e8:	08c77753          	fsub.s	fa4,fa4,fa2
   102ec:	0867f7d3          	fsub.s	fa5,fa5,ft6
   102f0:	0087a687          	flw	fa3,8(a5)
   102f4:	00c7a187          	flw	ft3,12(a5)
   102f8:	0107a207          	flw	ft4,16(a5)
   102fc:	0866f6d3          	fsub.s	fa3,fa3,ft6
   10300:	10f773d3          	fmul.s	ft7,fa4,fa5
   10304:	08c1f1d3          	fsub.s	ft3,ft3,fa2
   10308:	08527253          	fsub.s	ft4,ft4,ft5
   1030c:	0047a607          	flw	fa2,4(a5)
   10310:	08567653          	fsub.s	fa2,fa2,ft5
   10314:	1046f353          	fmul.s	ft6,fa3,ft4
   10318:	3836f6c7          	fmsub.s	fa3,fa3,ft3,ft7
   1031c:	103671d3          	fmul.s	ft3,fa2,ft3
   10320:	30f677c7          	fmsub.s	fa5,fa2,fa5,ft6
   10324:	10d6f653          	fmul.s	fa2,fa3,fa3
   10328:	18477747          	fmsub.s	fa4,fa4,ft4,ft3
   1032c:	60f7f643          	fmadd.s	fa2,fa5,fa5,fa2
   10330:	60e77643          	fmadd.s	fa2,fa4,fa4,fa2
   10334:	58067653          	fsqrt.s	fa2,fa2
   10338:	18c6f6d3          	fdiv.s	fa3,fa3,fa2
   1033c:	18c77753          	fdiv.s	fa4,fa4,fa2
   10340:	00a6f6d3          	fadd.s	fa3,fa3,fa0
   10344:	10b6f6d3          	fmul.s	fa3,fa3,fa1
   10348:	282696d3          	fmax.s	fa3,fa3,ft2
   1034c:	28a686d3          	fmin.s	fa3,fa3,fa0
   10350:	5816f6c3          	fmadd.s	fa3,fa3,ft1,fa1
   10354:	18c7f7d3          	fdiv.s	fa5,fa5,fa2
   10358:	00a77753          	fadd.s	fa4,fa4,fa0
   1035c:	c01697d3          	fcvt.wu.s	a5,fa3,rtz
   10360:	0087979b          	sllw	a5,a5,0x8
   10364:	10b77753          	fmul.s	fa4,fa4,fa1
   10368:	28271753          	fmax.s	fa4,fa4,ft2
   1036c:	28a70753          	fmin.s	fa4,fa4,fa0
   10370:	58177743          	fmadd.s	fa4,fa4,ft1,fa1
   10374:	00a7f7d3          	fadd.s	fa5,fa5,fa0
   10378:	c0171753          	fcvt.wu.s	a4,fa4,rtz
   1037c:	10b7f7d3          	fmul.s	fa5,fa5,fa1
   10380:	0107171b          	sllw	a4,a4,0x10
   10384:	00e7e7b3          	or	a5,a5,a4
   10388:	0007879b          	sext.w	a5,a5
   1038c:	282797d3          	fmax.s	fa5,fa5,ft2
   10390:	28a787d3          	fmin.s	fa5,fa5,fa0
   10394:	5817f7c3          	fmadd.s	fa5,fa5,ft1,fa1
   10398:	c0179753          	fcvt.wu.s	a4,fa5,rtz
   1039c:	00e7e7b3          	or	a5,a5,a4
   103a0:	00a7e7b3          	or	a5,a5,a0
   103a4:	00f42023          	sw	a5,0(s0)
   103a8:	0000040b          	fchthrd	s0
   103ac:	10802783          	lw	a5,264(zero) # 108 <main-0xffa8>
   103b0:	40f4043b          	subw	s0,s0,a5
   103b4:	eaf46ae3          	bltu	s0,a5,10268 <_ZL6kernelRK10KernelArgs.constprop.0+0x198>
   103b8:	eedff06f          	j	102a4 <_ZL6kernelRK10KernelArgs.constprop.0+0x1d4>

00000000000103bc <_Z17intersect_treeletRK7TreeletRKN3rtm3RayERNS2_3HitEPjRj>:
   103bc:	000127b7          	lui	a5,0x12
   103c0:	3947a507          	flw	fa0,916(a5) # 12394 <__DATA_BEGIN__>
   103c4:	0105a287          	flw	ft5,16(a1) # ffffffffff000010 <__global_pointer$+0xfffffffffefed47c>
   103c8:	0145a307          	flw	ft6,20(a1)
   103cc:	0185a387          	flw	ft7,24(a1)
   103d0:	18557053          	fdiv.s	ft0,fa0,ft5
   103d4:	0005a587          	flw	fa1,0(a1)
   103d8:	0045a687          	flw	fa3,4(a1)
   103dc:	02052787          	flw	fa5,32(a0) # ffffffffff000020 <__global_pointer$+0xfffffffffefed48c>
   103e0:	02452807          	flw	fa6,36(a0)
   103e4:	02c52e87          	flw	ft9,44(a0)
   103e8:	03052e07          	flw	ft8,48(a0)
   103ec:	08b7f7d3          	fsub.s	fa5,fa5,fa1
   103f0:	08d87853          	fsub.s	fa6,fa6,fa3
   103f4:	08befed3          	fsub.s	ft9,ft9,fa1
   103f8:	08de7e53          	fsub.s	ft8,ft8,fa3
   103fc:	0085a607          	flw	fa2,8(a1)
   10400:	02852187          	flw	ft3,40(a0)
   10404:	03452887          	flw	fa7,52(a0)
   10408:	00c5a207          	flw	ft4,12(a1)
   1040c:	08c1f1d3          	fsub.s	ft3,ft3,fa2
   10410:	08c8f8d3          	fsub.s	fa7,fa7,fa2
   10414:	01c5a107          	flw	ft2,28(a1)
   10418:	ee010113          	add	sp,sp,-288
   1041c:	00050813          	mv	a6,a0
   10420:	186570d3          	fdiv.s	ft1,fa0,ft6
   10424:	100efed3          	fmul.s	ft9,ft9,ft0
   10428:	1007f7d3          	fmul.s	fa5,fa5,ft0
   1042c:	29d78753          	fmin.s	fa4,fa5,ft9
   10430:	29d797d3          	fmax.s	fa5,fa5,ft9
   10434:	18757553          	fdiv.s	fa0,fa0,ft7
   10438:	10187853          	fmul.s	fa6,fa6,ft1
   1043c:	101e7e53          	fmul.s	ft8,ft8,ft1
   10440:	29c80ed3          	fmin.s	ft9,fa6,ft8
   10444:	29c81853          	fmax.s	fa6,fa6,ft8
   10448:	29d71753          	fmax.s	fa4,fa4,ft9
   1044c:	290787d3          	fmin.s	fa5,fa5,fa6
   10450:	28471753          	fmax.s	fa4,fa4,ft4
   10454:	282787d3          	fmin.s	fa5,fa5,ft2
   10458:	10a1f1d3          	fmul.s	ft3,ft3,fa0
   1045c:	10a8f853          	fmul.s	fa6,fa7,fa0
   10460:	290188d3          	fmin.s	fa7,ft3,fa6
   10464:	290191d3          	fmax.s	ft3,ft3,fa6
   10468:	29171753          	fmax.s	fa4,fa4,fa7
   1046c:	283787d3          	fmin.s	fa5,fa5,ft3
   10470:	a0e795d3          	flt.s	a1,fa5,fa4
   10474:	34059a63          	bnez	a1,107c8 <_Z17intersect_treeletRK7TreeletRKN3rtm3RayERNS2_3HitEPjRj+0x40c>
   10478:	a04795d3          	flt.s	a1,fa5,ft4
   1047c:	34059663          	bnez	a1,107c8 <_Z17intersect_treeletRK7TreeletRKN3rtm3RayERNS2_3HitEPjRj+0x40c>
   10480:	00062187          	flw	ft3,0(a2)
   10484:	02e12827          	fsw	fa4,48(sp)
   10488:	00000513          	li	a0,0
   1048c:	a0e185d3          	fle.s	a1,ft3,fa4
   10490:	32059863          	bnez	a1,107c0 <_Z17intersect_treeletRK7TreeletRKN3rtm3RayERNS2_3HitEPjRj+0x404>
   10494:	03882883          	lw	a7,56(a6)
   10498:	03c82583          	lw	a1,60(a6)
   1049c:	3947a807          	flw	fa6,916(a5)
   104a0:	f00008d3          	fmv.w.x	fa7,zero
   104a4:	40000337          	lui	t1,0x40000
   104a8:	03112a23          	sw	a7,52(sp)
   104ac:	10812e27          	fsw	fs0,284(sp)
   104b0:	10912c27          	fsw	fs1,280(sp)
   104b4:	11212a27          	fsw	fs2,276(sp)
   104b8:	11312827          	fsw	fs3,272(sp)
   104bc:	11412627          	fsw	fs4,268(sp)
   104c0:	11512427          	fsw	fs5,264(sp)
   104c4:	11612227          	fsw	fs6,260(sp)
   104c8:	11712027          	fsw	fs7,256(sp)
   104cc:	0f812e27          	fsw	fs8,252(sp)
   104d0:	02b12c23          	sw	a1,56(sp)
   104d4:	00100893          	li	a7,1
   104d8:	fff30313          	add	t1,t1,-1 # 3fffffff <__global_pointer$+0x3ffed46b>
   104dc:	fff8889b          	addw	a7,a7,-1
   104e0:	02089593          	sll	a1,a7,0x20
   104e4:	0205d593          	srl	a1,a1,0x20
   104e8:	00159793          	sll	a5,a1,0x1
   104ec:	00b787b3          	add	a5,a5,a1
   104f0:	00279793          	sll	a5,a5,0x2
   104f4:	0f078793          	add	a5,a5,240
   104f8:	002787b3          	add	a5,a5,sp
   104fc:	f407a583          	lw	a1,-192(a5)
   10500:	f447ae83          	lw	t4,-188(a5)
   10504:	f487ae03          	lw	t3,-184(a5)
   10508:	f00587d3          	fmv.w.x	fa5,a1
   1050c:	02b12023          	sw	a1,32(sp)
   10510:	03d12223          	sw	t4,36(sp)
   10514:	a0f187d3          	fle.s	a5,ft3,fa5
   10518:	03c12423          	sw	t3,40(sp)
   1051c:	00078863          	beqz	a5,1052c <_Z17intersect_treeletRK7TreeletRKN3rtm3RayERNS2_3HitEPjRj+0x170>
   10520:	26088e63          	beqz	a7,1079c <_Z17intersect_treeletRK7TreeletRKN3rtm3RayERNS2_3HitEPjRj+0x3e0>
   10524:	00062187          	flw	ft3,0(a2)
   10528:	fb5ff06f          	j	104dc <_Z17intersect_treeletRK7TreeletRKN3rtm3RayERNS2_3HitEPjRj+0x120>
   1052c:	000e879b          	sext.w	a5,t4
   10530:	0017f593          	and	a1,a5,1
   10534:	0e059c63          	bnez	a1,1062c <_Z17intersect_treeletRK7TreeletRKN3rtm3RayERNS2_3HitEPjRj+0x270>
   10538:	0027f593          	and	a1,a5,2
   1053c:	02813783          	ld	a5,40(sp)
   10540:	02013e03          	ld	t3,32(sp)
   10544:	0027d793          	srl	a5,a5,0x2
   10548:	0067f7b3          	and	a5,a5,t1
   1054c:	022e5f93          	srl	t6,t3,0x22
   10550:	00078f1b          	sext.w	t5,a5
   10554:	000f8e93          	mv	t4,t6
   10558:	000f0793          	mv	a5,t5
   1055c:	36058e63          	beqz	a1,108d8 <_Z17intersect_treeletRK7TreeletRKN3rtm3RayERNS2_3HitEPjRj+0x51c>
   10560:	00072e03          	lw	t3,0(a4)
   10564:	020e1293          	sll	t0,t3,0x20
   10568:	001e059b          	addw	a1,t3,1
   1056c:	01e2de13          	srl	t3,t0,0x1e
   10570:	00b72023          	sw	a1,0(a4)
   10574:	01c68e33          	add	t3,a3,t3
   10578:	01fe2023          	sw	t6,0(t3)
   1057c:	20210e53          	fmv.s	ft8,ft2
   10580:	02812583          	lw	a1,40(sp)
   10584:	0025f593          	and	a1,a1,2
   10588:	2a058c63          	beqz	a1,10840 <_Z17intersect_treeletRK7TreeletRKN3rtm3RayERNS2_3HitEPjRj+0x484>
   1058c:	00072e03          	lw	t3,0(a4)
   10590:	020e1f93          	sll	t6,t3,0x20
   10594:	001e059b          	addw	a1,t3,1
   10598:	01efde13          	srl	t3,t6,0x1e
   1059c:	00b72023          	sw	a1,0(a4)
   105a0:	01c68e33          	add	t3,a3,t3
   105a4:	01ee2023          	sw	t5,0(t3)
   105a8:	20210753          	fmv.s	fa4,ft2
   105ac:	a0ee15d3          	flt.s	a1,ft8,fa4
   105b0:	22058063          	beqz	a1,107d0 <_Z17intersect_treeletRK7TreeletRKN3rtm3RayERNS2_3HitEPjRj+0x414>
   105b4:	a03715d3          	flt.s	a1,fa4,ft3
   105b8:	3c058263          	beqz	a1,1097c <_Z17intersect_treeletRK7TreeletRKN3rtm3RayERNS2_3HitEPjRj+0x5c0>
   105bc:	00178793          	add	a5,a5,1
   105c0:	02089e13          	sll	t3,a7,0x20
   105c4:	00579793          	sll	a5,a5,0x5
   105c8:	020e5e13          	srl	t3,t3,0x20
   105cc:	00f807b3          	add	a5,a6,a5
   105d0:	0187b583          	ld	a1,24(a5)
   105d4:	001e1793          	sll	a5,t3,0x1
   105d8:	01c787b3          	add	a5,a5,t3
   105dc:	00279793          	sll	a5,a5,0x2
   105e0:	0f078793          	add	a5,a5,240
   105e4:	002787b3          	add	a5,a5,sp
   105e8:	4205de13          	sra	t3,a1,0x20
   105ec:	00b13023          	sd	a1,0(sp)
   105f0:	f4e7a027          	fsw	fa4,-192(a5)
   105f4:	f4b7a223          	sw	a1,-188(a5)
   105f8:	f5c7a423          	sw	t3,-184(a5)
   105fc:	0018889b          	addw	a7,a7,1
   10600:	001e8e13          	add	t3,t4,1
   10604:	005e1e13          	sll	t3,t3,0x5
   10608:	01c80e33          	add	t3,a6,t3
   1060c:	018e3783          	ld	a5,24(t3)
   10610:	4207d593          	sra	a1,a5,0x20
   10614:	00f13423          	sd	a5,8(sp)
   10618:	02f12223          	sw	a5,36(sp)
   1061c:	02b12423          	sw	a1,40(sp)
   10620:	02412783          	lw	a5,36(sp)
   10624:	0017f593          	and	a1,a5,1
   10628:	f00588e3          	beqz	a1,10538 <_Z17intersect_treeletRK7TreeletRKN3rtm3RayERNS2_3HitEPjRj+0x17c>
   1062c:	02013783          	ld	a5,32(sp)
   10630:	0217d593          	srl	a1,a5,0x21
   10634:	0075f593          	and	a1,a1,7
   10638:	0247d793          	srl	a5,a5,0x24
   1063c:	00158593          	add	a1,a1,1
   10640:	03079793          	sll	a5,a5,0x30
   10644:	0307d793          	srl	a5,a5,0x30
   10648:	00259e13          	sll	t3,a1,0x2
   1064c:	00279793          	sll	a5,a5,0x2
   10650:	00be0e33          	add	t3,t3,a1
   10654:	00f807b3          	add	a5,a6,a5
   10658:	003e1e13          	sll	t3,t3,0x3
   1065c:	00fe0e33          	add	t3,t3,a5
   10660:	0187a787          	flw	fa5,24(a5)
   10664:	0207a907          	flw	fs2,32(a5)
   10668:	0147a407          	flw	fs0,20(a5)
   1066c:	0007ae07          	flw	ft8,0(a5)
   10670:	01c7a987          	flw	fs3,28(a5)
   10674:	09247453          	fsub.s	fs0,fs0,fs2
   10678:	08fe7e53          	fsub.s	ft8,ft8,fa5
   1067c:	00c7af87          	flw	ft11,12(a5)
   10680:	0107af07          	flw	ft10,16(a5)
   10684:	0087ae87          	flw	ft9,8(a5)
   10688:	08ffffd3          	fsub.s	ft11,ft11,fa5
   1068c:	093f7f53          	fsub.s	ft10,ft10,fs3
   10690:	092efed3          	fsub.s	ft9,ft9,fs2
   10694:	11c47a53          	fmul.s	fs4,fs0,ft8
   10698:	0047a707          	flw	fa4,4(a5)
   1069c:	11df74d3          	fmul.s	fs1,ft10,ft9
   106a0:	09377753          	fsub.s	fa4,fa4,fs3
   106a4:	a1dffa47          	fmsub.s	fs4,ft11,ft9,fs4
   106a8:	48e474c7          	fmsub.s	fs1,fs0,fa4,fs1
   106ac:	10eff1d3          	fmul.s	ft3,ft11,fa4
   106b0:	114a7a53          	fmul.s	fs4,fs4,fs4
   106b4:	19cf71c7          	fmsub.s	ft3,ft10,ft8,ft3
   106b8:	a094f4c3          	fmadd.s	fs1,fs1,fs1,fs4
   106bc:	4831f1c3          	fmadd.s	ft3,ft3,ft3,fs1
   106c0:	5801f1d3          	fsqrt.s	ft3,ft3
   106c4:	10547ad3          	fmul.s	fs5,fs0,ft5
   106c8:	107f7a53          	fmul.s	fs4,ft10,ft7
   106cc:	08f5fbd3          	fsub.s	fs7,fa1,fa5
   106d0:	106ff1d3          	fmul.s	ft3,ft11,ft6
   106d4:	0936f9d3          	fsub.s	fs3,fa3,fs3
   106d8:	a87ffac7          	fmsub.s	fs5,ft11,ft7,fs5
   106dc:	a0647a47          	fmsub.s	fs4,fs0,ft6,fs4
   106e0:	09267b53          	fsub.s	fs6,fa2,fs2
   106e4:	185f71c7          	fmsub.s	ft3,ft10,ft5,ft3
   106e8:	117efc53          	fmul.s	fs8,ft9,fs7
   106ec:	115777d3          	fmul.s	fa5,fa4,fs5
   106f0:	113e74d3          	fmul.s	fs1,ft8,fs3
   106f4:	11677953          	fmul.s	fs2,fa4,fs6
   106f8:	113afad3          	fmul.s	fs5,fs5,fs3
   106fc:	794e77c3          	fmadd.s	fa5,ft8,fs4,fa5
   10700:	c16e7e47          	fmsub.s	ft8,ft8,fs6,fs8
   10704:	497774c7          	fmsub.s	fs1,fa4,fs7,fs1
   10708:	a97a7a43          	fmadd.s	fs4,fs4,fs7,fs5
   1070c:	783ef7c3          	fmadd.s	fa5,ft9,ft3,fa5
   10710:	11c37753          	fmul.s	fa4,ft6,ft8
   10714:	913efec7          	fmsub.s	ft9,ft9,fs3,fs2
   10718:	a161f1c3          	fmadd.s	ft3,ft3,fs6,fs4
   1071c:	18f877d3          	fdiv.s	fa5,fa6,fa5
   10720:	71d2f743          	fmadd.s	fa4,ft5,ft9,fa4
   10724:	7093f743          	fmadd.s	fa4,ft7,fs1,fa4
   10728:	1037f1d3          	fmul.s	ft3,fa5,ft3
   1072c:	10e7f753          	fmul.s	fa4,fa5,fa4
   10730:	a11195d3          	flt.s	a1,ft3,fa7
   10734:	a0381ed3          	flt.s	t4,fa6,ft3
   10738:	a1171f53          	flt.s	t5,fa4,fa7
   1073c:	04059a63          	bnez	a1,10790 <_Z17intersect_treeletRK7TreeletRKN3rtm3RayERNS2_3HitEPjRj+0x3d4>
   10740:	00e1f953          	fadd.s	fs2,ft3,fa4
   10744:	040e9663          	bnez	t4,10790 <_Z17intersect_treeletRK7TreeletRKN3rtm3RayERNS2_3HitEPjRj+0x3d4>
   10748:	11cf7f53          	fmul.s	ft10,ft10,ft8
   1074c:	040f1263          	bnez	t5,10790 <_Z17intersect_treeletRK7TreeletRKN3rtm3RayERNS2_3HitEPjRj+0x3d4>
   10750:	a12815d3          	flt.s	a1,fa6,fs2
   10754:	f1dfffc3          	fmadd.s	ft11,ft11,ft9,ft10
   10758:	02059c63          	bnez	a1,10790 <_Z17intersect_treeletRK7TreeletRKN3rtm3RayERNS2_3HitEPjRj+0x3d4>
   1075c:	f8947443          	fmadd.s	fs0,fs0,fs1,ft11
   10760:	1087f7d3          	fmul.s	fa5,fa5,fs0
   10764:	a04795d3          	flt.s	a1,fa5,ft4
   10768:	02059463          	bnez	a1,10790 <_Z17intersect_treeletRK7TreeletRKN3rtm3RayERNS2_3HitEPjRj+0x3d4>
   1076c:	00062e07          	flw	ft8,0(a2)
   10770:	a0fe15d3          	flt.s	a1,ft8,fa5
   10774:	00059e63          	bnez	a1,10790 <_Z17intersect_treeletRK7TreeletRKN3rtm3RayERNS2_3HitEPjRj+0x3d4>
   10778:	0247a583          	lw	a1,36(a5)
   1077c:	00100513          	li	a0,1
   10780:	00362227          	fsw	ft3,4(a2)
   10784:	00e62427          	fsw	fa4,8(a2)
   10788:	00f62027          	fsw	fa5,0(a2)
   1078c:	00b62623          	sw	a1,12(a2)
   10790:	02878793          	add	a5,a5,40
   10794:	ecfe16e3          	bne	t3,a5,10660 <_Z17intersect_treeletRK7TreeletRKN3rtm3RayERNS2_3HitEPjRj+0x2a4>
   10798:	d80896e3          	bnez	a7,10524 <_Z17intersect_treeletRK7TreeletRKN3rtm3RayERNS2_3HitEPjRj+0x168>
   1079c:	11c12407          	flw	fs0,284(sp)
   107a0:	11812487          	flw	fs1,280(sp)
   107a4:	11412907          	flw	fs2,276(sp)
   107a8:	11012987          	flw	fs3,272(sp)
   107ac:	10c12a07          	flw	fs4,268(sp)
   107b0:	10812a87          	flw	fs5,264(sp)
   107b4:	10412b07          	flw	fs6,260(sp)
   107b8:	10012b87          	flw	fs7,256(sp)
   107bc:	0fc12c07          	flw	fs8,252(sp)
   107c0:	12010113          	add	sp,sp,288
   107c4:	00008067          	ret
   107c8:	20210753          	fmv.s	fa4,ft2
   107cc:	cb5ff06f          	j	10480 <_Z17intersect_treeletRK7TreeletRKN3rtm3RayERNS2_3HitEPjRj+0xc4>
   107d0:	a03e15d3          	flt.s	a1,ft8,ft3
   107d4:	18058e63          	beqz	a1,10970 <_Z17intersect_treeletRK7TreeletRKN3rtm3RayERNS2_3HitEPjRj+0x5b4>
   107d8:	001e8593          	add	a1,t4,1
   107dc:	00559593          	sll	a1,a1,0x5
   107e0:	02089e93          	sll	t4,a7,0x20
   107e4:	020ede93          	srl	t4,t4,0x20
   107e8:	00b805b3          	add	a1,a6,a1
   107ec:	0185be03          	ld	t3,24(a1)
   107f0:	001e9593          	sll	a1,t4,0x1
   107f4:	01d585b3          	add	a1,a1,t4
   107f8:	00259593          	sll	a1,a1,0x2
   107fc:	0f058593          	add	a1,a1,240
   10800:	002585b3          	add	a1,a1,sp
   10804:	420e5e93          	sra	t4,t3,0x20
   10808:	01c13823          	sd	t3,16(sp)
   1080c:	f5c5a027          	fsw	ft8,-192(a1)
   10810:	f5c5a223          	sw	t3,-188(a1)
   10814:	f5d5a423          	sw	t4,-184(a1)
   10818:	0018889b          	addw	a7,a7,1
   1081c:	00178793          	add	a5,a5,1
   10820:	00579793          	sll	a5,a5,0x5
   10824:	00f807b3          	add	a5,a6,a5
   10828:	0187b783          	ld	a5,24(a5)
   1082c:	4207d593          	sra	a1,a5,0x20
   10830:	00f13c23          	sd	a5,24(sp)
   10834:	02f12223          	sw	a5,36(sp)
   10838:	02b12423          	sw	a1,40(sp)
   1083c:	de5ff06f          	j	10620 <_Z17intersect_treeletRK7TreeletRKN3rtm3RayERNS2_3HitEPjRj+0x264>
   10840:	0017859b          	addw	a1,a5,1
   10844:	00559593          	sll	a1,a1,0x5
   10848:	00b805b3          	add	a1,a6,a1
   1084c:	0005a787          	flw	fa5,0(a1)
   10850:	0045af07          	flw	ft10,4(a1)
   10854:	00c5a487          	flw	fs1,12(a1)
   10858:	0105a407          	flw	fs0,16(a1)
   1085c:	08b7f7d3          	fsub.s	fa5,fa5,fa1
   10860:	08df7f53          	fsub.s	ft10,ft10,fa3
   10864:	08b4f4d3          	fsub.s	fs1,fs1,fa1
   10868:	08d47453          	fsub.s	fs0,fs0,fa3
   1086c:	0085ae87          	flw	ft9,8(a1)
   10870:	0145af87          	flw	ft11,20(a1)
   10874:	1007f7d3          	fmul.s	fa5,fa5,ft0
   10878:	101f7f53          	fmul.s	ft10,ft10,ft1
   1087c:	1004f4d3          	fmul.s	fs1,fs1,ft0
   10880:	10147453          	fmul.s	fs0,fs0,ft1
   10884:	08cefed3          	fsub.s	ft9,ft9,fa2
   10888:	08cfffd3          	fsub.s	ft11,ft11,fa2
   1088c:	28978753          	fmin.s	fa4,fa5,fs1
   10890:	288f0953          	fmin.s	fs2,ft10,fs0
   10894:	289797d3          	fmax.s	fa5,fa5,fs1
   10898:	288f1f53          	fmax.s	ft10,ft10,fs0
   1089c:	10aefed3          	fmul.s	ft9,ft9,fa0
   108a0:	10afffd3          	fmul.s	ft11,ft11,fa0
   108a4:	29e787d3          	fmin.s	fa5,fa5,ft10
   108a8:	29271753          	fmax.s	fa4,fa4,fs2
   108ac:	282787d3          	fmin.s	fa5,fa5,ft2
   108b0:	29fe8f53          	fmin.s	ft10,ft9,ft11
   108b4:	28471753          	fmax.s	fa4,fa4,ft4
   108b8:	29fe9ed3          	fmax.s	ft9,ft9,ft11
   108bc:	29e71753          	fmax.s	fa4,fa4,ft10
   108c0:	29d787d3          	fmin.s	fa5,fa5,ft9
   108c4:	a0e795d3          	flt.s	a1,fa5,fa4
   108c8:	ce0590e3          	bnez	a1,105a8 <_Z17intersect_treeletRK7TreeletRKN3rtm3RayERNS2_3HitEPjRj+0x1ec>
   108cc:	a04795d3          	flt.s	a1,fa5,ft4
   108d0:	cc058ee3          	beqz	a1,105ac <_Z17intersect_treeletRK7TreeletRKN3rtm3RayERNS2_3HitEPjRj+0x1f0>
   108d4:	cd5ff06f          	j	105a8 <_Z17intersect_treeletRK7TreeletRKN3rtm3RayERNS2_3HitEPjRj+0x1ec>
   108d8:	001f8593          	add	a1,t6,1
   108dc:	00559593          	sll	a1,a1,0x5
   108e0:	00b805b3          	add	a1,a6,a1
   108e4:	0005a787          	flw	fa5,0(a1)
   108e8:	0045ae87          	flw	ft9,4(a1)
   108ec:	00c5a407          	flw	fs0,12(a1)
   108f0:	0105af87          	flw	ft11,16(a1)
   108f4:	08b7f7d3          	fsub.s	fa5,fa5,fa1
   108f8:	08defed3          	fsub.s	ft9,ft9,fa3
   108fc:	08b47453          	fsub.s	fs0,fs0,fa1
   10900:	08dfffd3          	fsub.s	ft11,ft11,fa3
   10904:	0085a707          	flw	fa4,8(a1)
   10908:	0145af07          	flw	ft10,20(a1)
   1090c:	1007f7d3          	fmul.s	fa5,fa5,ft0
   10910:	101efed3          	fmul.s	ft9,ft9,ft1
   10914:	10047453          	fmul.s	fs0,fs0,ft0
   10918:	101fffd3          	fmul.s	ft11,ft11,ft1
   1091c:	08c77753          	fsub.s	fa4,fa4,fa2
   10920:	08cf7f53          	fsub.s	ft10,ft10,fa2
   10924:	28878e53          	fmin.s	ft8,fa5,fs0
   10928:	29fe84d3          	fmin.s	fs1,ft9,ft11
   1092c:	288797d3          	fmax.s	fa5,fa5,fs0
   10930:	29fe9ed3          	fmax.s	ft9,ft9,ft11
   10934:	10a77753          	fmul.s	fa4,fa4,fa0
   10938:	10af7f53          	fmul.s	ft10,ft10,fa0
   1093c:	29d787d3          	fmin.s	fa5,fa5,ft9
   10940:	289e1e53          	fmax.s	ft8,ft8,fs1
   10944:	282787d3          	fmin.s	fa5,fa5,ft2
   10948:	29e70ed3          	fmin.s	ft9,fa4,ft10
   1094c:	284e1e53          	fmax.s	ft8,ft8,ft4
   10950:	29e71753          	fmax.s	fa4,fa4,ft10
   10954:	29de1e53          	fmax.s	ft8,ft8,ft9
   10958:	28e787d3          	fmin.s	fa5,fa5,fa4
   1095c:	a1c795d3          	flt.s	a1,fa5,ft8
   10960:	c0059ee3          	bnez	a1,1057c <_Z17intersect_treeletRK7TreeletRKN3rtm3RayERNS2_3HitEPjRj+0x1c0>
   10964:	a04795d3          	flt.s	a1,fa5,ft4
   10968:	c0058ce3          	beqz	a1,10580 <_Z17intersect_treeletRK7TreeletRKN3rtm3RayERNS2_3HitEPjRj+0x1c4>
   1096c:	c11ff06f          	j	1057c <_Z17intersect_treeletRK7TreeletRKN3rtm3RayERNS2_3HitEPjRj+0x1c0>
   10970:	a03715d3          	flt.s	a1,fa4,ft3
   10974:	ea0594e3          	bnez	a1,1081c <_Z17intersect_treeletRK7TreeletRKN3rtm3RayERNS2_3HitEPjRj+0x460>
   10978:	ba9ff06f          	j	10520 <_Z17intersect_treeletRK7TreeletRKN3rtm3RayERNS2_3HitEPjRj+0x164>
   1097c:	a03e17d3          	flt.s	a5,ft8,ft3
   10980:	c80790e3          	bnez	a5,10600 <_Z17intersect_treeletRK7TreeletRKN3rtm3RayERNS2_3HitEPjRj+0x244>
   10984:	b9dff06f          	j	10520 <_Z17intersect_treeletRK7TreeletRKN3rtm3RayERNS2_3HitEPjRj+0x164>

0000000000010988 <_Z10launch_rayRK7TreeletR8WorkItemPN3rtm3HitE>:
   10988:	f7010113          	add	sp,sp,-144
   1098c:	07312027          	fsw	fs3,96(sp)
   10990:	01c5a987          	flw	fs3,28(a1)
   10994:	06913c23          	sd	s1,120(sp)
   10998:	00c10713          	add	a4,sp,12
   1099c:	00060493          	mv	s1,a2
   109a0:	02010693          	add	a3,sp,32
   109a4:	01010613          	add	a2,sp,16
   109a8:	08813023          	sd	s0,128(sp)
   109ac:	08113423          	sd	ra,136(sp)
   109b0:	00058413          	mv	s0,a1
   109b4:	01312827          	fsw	fs3,16(sp)
   109b8:	00012623          	sw	zero,12(sp)
   109bc:	00000097          	auipc	ra,0x0
   109c0:	a00080e7          	jalr	-1536(ra) # 103bc <_Z17intersect_treeletRK7TreeletRKN3rtm3RayERNS2_3HitEPjRj>
   109c4:	02050663          	beqz	a0,109f0 <_Z10launch_rayRK7TreeletR8WorkItemPN3rtm3HitE+0x68>
   109c8:	02046783          	lwu	a5,32(s0)
   109cc:	07212227          	fsw	fs2,100(sp)
   109d0:	01012787          	flw	fa5,16(sp)
   109d4:	00479793          	sll	a5,a5,0x4
   109d8:	01412807          	flw	fa6,20(sp)
   109dc:	00f487b3          	add	a5,s1,a5
   109e0:	01812887          	flw	fa7,24(sp)
   109e4:	01c12907          	flw	fs2,28(sp)
   109e8:	00f7b00b          	cshit	fa5,0(a5)
   109ec:	06412907          	flw	fs2,100(sp)
   109f0:	00c12783          	lw	a5,12(sp)
   109f4:	36078863          	beqz	a5,10d64 <_Z10launch_rayRK7TreeletR8WorkItemPN3rtm3HitE+0x3dc>
   109f8:	fff7871b          	addw	a4,a5,-1
   109fc:	02071613          	sll	a2,a4,0x20
   10a00:	01e65693          	srl	a3,a2,0x1e
   10a04:	06068693          	add	a3,a3,96
   10a08:	002686b3          	add	a3,a3,sp
   10a0c:	fc06a683          	lw	a3,-64(a3)
   10a10:	00042887          	flw	fa7,0(s0)
   10a14:	00442807          	flw	fa6,4(s0)
   10a18:	00842507          	flw	fa0,8(s0)
   10a1c:	00c42587          	flw	fa1,12(s0)
   10a20:	01042607          	flw	fa2,16(s0)
   10a24:	01442687          	flw	fa3,20(s0)
   10a28:	01842707          	flw	fa4,24(s0)
   10a2c:	02042787          	flw	fa5,32(s0)
   10a30:	06812627          	fsw	fs0,108(sp)
   10a34:	06912427          	fsw	fs1,104(sp)
   10a38:	21188053          	fmv.s	ft0,fa7
   10a3c:	210800d3          	fmv.s	ft1,fa6
   10a40:	20a50153          	fmv.s	ft2,fa0
   10a44:	20b581d3          	fmv.s	ft3,fa1
   10a48:	20c60253          	fmv.s	ft4,fa2
   10a4c:	20d682d3          	fmv.s	ft5,fa3
   10a50:	20e70353          	fmv.s	ft6,fa4
   10a54:	213983d3          	fmv.s	ft7,fs3
   10a58:	20f78453          	fmv.s	fs0,fa5
   10a5c:	f00684d3          	fmv.w.x	fs1,a3
   10a60:	0007061b          	sext.w	a2,a4
   10a64:	00e12623          	sw	a4,12(sp)
   10a68:	02d42223          	sw	a3,36(s0)
   10a6c:	1000200b          	swi	ft0,256(zero) # 100 <main-0xffb0>
   10a70:	2e060663          	beqz	a2,10d5c <_Z10launch_rayRK7TreeletR8WorkItemPN3rtm3HitE+0x3d4>
   10a74:	ffe7871b          	addw	a4,a5,-2
   10a78:	02071613          	sll	a2,a4,0x20
   10a7c:	01e65693          	srl	a3,a2,0x1e
   10a80:	06068693          	add	a3,a3,96
   10a84:	002686b3          	add	a3,a3,sp
   10a88:	fc06a683          	lw	a3,-64(a3)
   10a8c:	0007061b          	sext.w	a2,a4
   10a90:	00e12623          	sw	a4,12(sp)
   10a94:	f00684d3          	fmv.w.x	fs1,a3
   10a98:	02d42223          	sw	a3,36(s0)
   10a9c:	1000200b          	swi	ft0,256(zero) # 100 <main-0xffb0>
   10aa0:	2a060e63          	beqz	a2,10d5c <_Z10launch_rayRK7TreeletR8WorkItemPN3rtm3HitE+0x3d4>
   10aa4:	ffd7871b          	addw	a4,a5,-3
   10aa8:	02071613          	sll	a2,a4,0x20
   10aac:	01e65693          	srl	a3,a2,0x1e
   10ab0:	06068693          	add	a3,a3,96
   10ab4:	002686b3          	add	a3,a3,sp
   10ab8:	fc06a683          	lw	a3,-64(a3)
   10abc:	0007061b          	sext.w	a2,a4
   10ac0:	00e12623          	sw	a4,12(sp)
   10ac4:	f00684d3          	fmv.w.x	fs1,a3
   10ac8:	02d42223          	sw	a3,36(s0)
   10acc:	1000200b          	swi	ft0,256(zero) # 100 <main-0xffb0>
   10ad0:	28060663          	beqz	a2,10d5c <_Z10launch_rayRK7TreeletR8WorkItemPN3rtm3HitE+0x3d4>
   10ad4:	ffc7871b          	addw	a4,a5,-4
   10ad8:	02071613          	sll	a2,a4,0x20
   10adc:	01e65693          	srl	a3,a2,0x1e
   10ae0:	06068693          	add	a3,a3,96
   10ae4:	002686b3          	add	a3,a3,sp
   10ae8:	fc06a683          	lw	a3,-64(a3)
   10aec:	0007061b          	sext.w	a2,a4
   10af0:	00e12623          	sw	a4,12(sp)
   10af4:	f00684d3          	fmv.w.x	fs1,a3
   10af8:	02d42223          	sw	a3,36(s0)
   10afc:	1000200b          	swi	ft0,256(zero) # 100 <main-0xffb0>
   10b00:	24060e63          	beqz	a2,10d5c <_Z10launch_rayRK7TreeletR8WorkItemPN3rtm3HitE+0x3d4>
   10b04:	ffb7871b          	addw	a4,a5,-5
   10b08:	02071613          	sll	a2,a4,0x20
   10b0c:	01e65693          	srl	a3,a2,0x1e
   10b10:	06068693          	add	a3,a3,96
   10b14:	002686b3          	add	a3,a3,sp
   10b18:	fc06a683          	lw	a3,-64(a3)
   10b1c:	0007061b          	sext.w	a2,a4
   10b20:	00e12623          	sw	a4,12(sp)
   10b24:	f00684d3          	fmv.w.x	fs1,a3
   10b28:	02d42223          	sw	a3,36(s0)
   10b2c:	1000200b          	swi	ft0,256(zero) # 100 <main-0xffb0>
   10b30:	22060663          	beqz	a2,10d5c <_Z10launch_rayRK7TreeletR8WorkItemPN3rtm3HitE+0x3d4>
   10b34:	ffa7871b          	addw	a4,a5,-6
   10b38:	02071613          	sll	a2,a4,0x20
   10b3c:	01e65693          	srl	a3,a2,0x1e
   10b40:	06068693          	add	a3,a3,96
   10b44:	002686b3          	add	a3,a3,sp
   10b48:	fc06a683          	lw	a3,-64(a3)
   10b4c:	0007061b          	sext.w	a2,a4
   10b50:	00e12623          	sw	a4,12(sp)
   10b54:	f00684d3          	fmv.w.x	fs1,a3
   10b58:	02d42223          	sw	a3,36(s0)
   10b5c:	1000200b          	swi	ft0,256(zero) # 100 <main-0xffb0>
   10b60:	1e060e63          	beqz	a2,10d5c <_Z10launch_rayRK7TreeletR8WorkItemPN3rtm3HitE+0x3d4>
   10b64:	ff97871b          	addw	a4,a5,-7
   10b68:	02071613          	sll	a2,a4,0x20
   10b6c:	01e65693          	srl	a3,a2,0x1e
   10b70:	06068693          	add	a3,a3,96
   10b74:	002686b3          	add	a3,a3,sp
   10b78:	fc06a683          	lw	a3,-64(a3)
   10b7c:	0007061b          	sext.w	a2,a4
   10b80:	00e12623          	sw	a4,12(sp)
   10b84:	f00684d3          	fmv.w.x	fs1,a3
   10b88:	02d42223          	sw	a3,36(s0)
   10b8c:	1000200b          	swi	ft0,256(zero) # 100 <main-0xffb0>
   10b90:	1c060663          	beqz	a2,10d5c <_Z10launch_rayRK7TreeletR8WorkItemPN3rtm3HitE+0x3d4>
   10b94:	ff87871b          	addw	a4,a5,-8
   10b98:	02071613          	sll	a2,a4,0x20
   10b9c:	01e65693          	srl	a3,a2,0x1e
   10ba0:	06068693          	add	a3,a3,96
   10ba4:	002686b3          	add	a3,a3,sp
   10ba8:	fc06a683          	lw	a3,-64(a3)
   10bac:	0007061b          	sext.w	a2,a4
   10bb0:	00e12623          	sw	a4,12(sp)
   10bb4:	f00684d3          	fmv.w.x	fs1,a3
   10bb8:	02d42223          	sw	a3,36(s0)
   10bbc:	1000200b          	swi	ft0,256(zero) # 100 <main-0xffb0>
   10bc0:	18060e63          	beqz	a2,10d5c <_Z10launch_rayRK7TreeletR8WorkItemPN3rtm3HitE+0x3d4>
   10bc4:	ff77871b          	addw	a4,a5,-9
   10bc8:	02071613          	sll	a2,a4,0x20
   10bcc:	01e65693          	srl	a3,a2,0x1e
   10bd0:	06068693          	add	a3,a3,96
   10bd4:	002686b3          	add	a3,a3,sp
   10bd8:	fc06a683          	lw	a3,-64(a3)
   10bdc:	0007061b          	sext.w	a2,a4
   10be0:	00e12623          	sw	a4,12(sp)
   10be4:	f00684d3          	fmv.w.x	fs1,a3
   10be8:	02d42223          	sw	a3,36(s0)
   10bec:	1000200b          	swi	ft0,256(zero) # 100 <main-0xffb0>
   10bf0:	16060663          	beqz	a2,10d5c <_Z10launch_rayRK7TreeletR8WorkItemPN3rtm3HitE+0x3d4>
   10bf4:	ff67871b          	addw	a4,a5,-10
   10bf8:	02071613          	sll	a2,a4,0x20
   10bfc:	01e65693          	srl	a3,a2,0x1e
   10c00:	06068693          	add	a3,a3,96
   10c04:	002686b3          	add	a3,a3,sp
   10c08:	fc06a683          	lw	a3,-64(a3)
   10c0c:	0007061b          	sext.w	a2,a4
   10c10:	00e12623          	sw	a4,12(sp)
   10c14:	f00684d3          	fmv.w.x	fs1,a3
   10c18:	02d42223          	sw	a3,36(s0)
   10c1c:	1000200b          	swi	ft0,256(zero) # 100 <main-0xffb0>
   10c20:	12060e63          	beqz	a2,10d5c <_Z10launch_rayRK7TreeletR8WorkItemPN3rtm3HitE+0x3d4>
   10c24:	ff57871b          	addw	a4,a5,-11
   10c28:	02071613          	sll	a2,a4,0x20
   10c2c:	01e65693          	srl	a3,a2,0x1e
   10c30:	06068693          	add	a3,a3,96
   10c34:	002686b3          	add	a3,a3,sp
   10c38:	fc06a683          	lw	a3,-64(a3)
   10c3c:	0007061b          	sext.w	a2,a4
   10c40:	00e12623          	sw	a4,12(sp)
   10c44:	f00684d3          	fmv.w.x	fs1,a3
   10c48:	02d42223          	sw	a3,36(s0)
   10c4c:	1000200b          	swi	ft0,256(zero) # 100 <main-0xffb0>
   10c50:	10060663          	beqz	a2,10d5c <_Z10launch_rayRK7TreeletR8WorkItemPN3rtm3HitE+0x3d4>
   10c54:	ff47871b          	addw	a4,a5,-12
   10c58:	02071613          	sll	a2,a4,0x20
   10c5c:	01e65693          	srl	a3,a2,0x1e
   10c60:	06068693          	add	a3,a3,96
   10c64:	002686b3          	add	a3,a3,sp
   10c68:	fc06a683          	lw	a3,-64(a3)
   10c6c:	0007061b          	sext.w	a2,a4
   10c70:	00e12623          	sw	a4,12(sp)
   10c74:	f00684d3          	fmv.w.x	fs1,a3
   10c78:	02d42223          	sw	a3,36(s0)
   10c7c:	1000200b          	swi	ft0,256(zero) # 100 <main-0xffb0>
   10c80:	0c060e63          	beqz	a2,10d5c <_Z10launch_rayRK7TreeletR8WorkItemPN3rtm3HitE+0x3d4>
   10c84:	ff37871b          	addw	a4,a5,-13
   10c88:	02071613          	sll	a2,a4,0x20
   10c8c:	01e65693          	srl	a3,a2,0x1e
   10c90:	06068693          	add	a3,a3,96
   10c94:	002686b3          	add	a3,a3,sp
   10c98:	fc06a683          	lw	a3,-64(a3)
   10c9c:	0007061b          	sext.w	a2,a4
   10ca0:	00e12623          	sw	a4,12(sp)
   10ca4:	f00684d3          	fmv.w.x	fs1,a3
   10ca8:	02d42223          	sw	a3,36(s0)
   10cac:	1000200b          	swi	ft0,256(zero) # 100 <main-0xffb0>
   10cb0:	0a060663          	beqz	a2,10d5c <_Z10launch_rayRK7TreeletR8WorkItemPN3rtm3HitE+0x3d4>
   10cb4:	ff27871b          	addw	a4,a5,-14
   10cb8:	02071613          	sll	a2,a4,0x20
   10cbc:	01e65693          	srl	a3,a2,0x1e
   10cc0:	06068693          	add	a3,a3,96
   10cc4:	002686b3          	add	a3,a3,sp
   10cc8:	fc06a683          	lw	a3,-64(a3)
   10ccc:	0007061b          	sext.w	a2,a4
   10cd0:	00e12623          	sw	a4,12(sp)
   10cd4:	f00684d3          	fmv.w.x	fs1,a3
   10cd8:	02d42223          	sw	a3,36(s0)
   10cdc:	1000200b          	swi	ft0,256(zero) # 100 <main-0xffb0>
   10ce0:	06060e63          	beqz	a2,10d5c <_Z10launch_rayRK7TreeletR8WorkItemPN3rtm3HitE+0x3d4>
   10ce4:	ff17871b          	addw	a4,a5,-15
   10ce8:	02071613          	sll	a2,a4,0x20
   10cec:	01e65693          	srl	a3,a2,0x1e
   10cf0:	06068693          	add	a3,a3,96
   10cf4:	002686b3          	add	a3,a3,sp
   10cf8:	fc06a683          	lw	a3,-64(a3)
   10cfc:	0007061b          	sext.w	a2,a4
   10d00:	00e12623          	sw	a4,12(sp)
   10d04:	f00684d3          	fmv.w.x	fs1,a3
   10d08:	02d42223          	sw	a3,36(s0)
   10d0c:	1000200b          	swi	ft0,256(zero) # 100 <main-0xffb0>
   10d10:	04060663          	beqz	a2,10d5c <_Z10launch_rayRK7TreeletR8WorkItemPN3rtm3HitE+0x3d4>
   10d14:	ff07879b          	addw	a5,a5,-16
   10d18:	02079693          	sll	a3,a5,0x20
   10d1c:	01e6d713          	srl	a4,a3,0x1e
   10d20:	06070713          	add	a4,a4,96
   10d24:	00270733          	add	a4,a4,sp
   10d28:	fc072703          	lw	a4,-64(a4)
   10d2c:	00f12623          	sw	a5,12(sp)
   10d30:	f00704d3          	fmv.w.x	fs1,a4
   10d34:	02e42223          	sw	a4,36(s0)
   10d38:	1000200b          	swi	ft0,256(zero) # 100 <main-0xffb0>
   10d3c:	08813083          	ld	ra,136(sp)
   10d40:	08013403          	ld	s0,128(sp)
   10d44:	06c12407          	flw	fs0,108(sp)
   10d48:	06812487          	flw	fs1,104(sp)
   10d4c:	07813483          	ld	s1,120(sp)
   10d50:	06012987          	flw	fs3,96(sp)
   10d54:	09010113          	add	sp,sp,144
   10d58:	00008067          	ret
   10d5c:	06c12407          	flw	fs0,108(sp)
   10d60:	06812487          	flw	fs1,104(sp)
   10d64:	08813083          	ld	ra,136(sp)
   10d68:	08013403          	ld	s0,128(sp)
   10d6c:	07813483          	ld	s1,120(sp)
   10d70:	06012987          	flw	fs3,96(sp)
   10d74:	09010113          	add	sp,sp,144
   10d78:	00008067          	ret

0000000000010d7c <_Z17intersect_bucketsPK7TreeletPN3rtm3HitE>:
   10d7c:	f1010113          	add	sp,sp,-240
   10d80:	0c913c23          	sd	s1,216(sp)
   10d84:	fff00493          	li	s1,-1
   10d88:	0d213823          	sd	s2,208(sp)
   10d8c:	0d313423          	sd	s3,200(sp)
   10d90:	0d413023          	sd	s4,192(sp)
   10d94:	0e113423          	sd	ra,232(sp)
   10d98:	0e813023          	sd	s0,224(sp)
   10d9c:	0b513c23          	sd	s5,184(sp)
   10da0:	0a812627          	fsw	fs0,172(sp)
   10da4:	0a912427          	fsw	fs1,168(sp)
   10da8:	0b212227          	fsw	fs2,164(sp)
   10dac:	0b312027          	fsw	fs3,160(sp)
   10db0:	09412e27          	fsw	fs4,156(sp)
   10db4:	09512c27          	fsw	fs5,152(sp)
   10db8:	09612a27          	fsw	fs6,148(sp)
   10dbc:	09712827          	fsw	fs7,144(sp)
   10dc0:	09812627          	fsw	fs8,140(sp)
   10dc4:	09912427          	fsw	fs9,136(sp)
   10dc8:	09a12227          	fsw	fs10,132(sp)
   10dcc:	00050913          	mv	s2,a0
   10dd0:	00058a13          	mv	s4,a1
   10dd4:	0204d993          	srl	s3,s1,0x20
   10dd8:	0000100b          	lwi	ft0,0(zero) # 0 <main-0x100b0>
   10ddc:	e00487d3          	fmv.x.w	a5,fs1
   10de0:	e0040453          	fmv.x.w	s0,fs0
   10de4:	00012c27          	fsw	ft0,24(sp)
   10de8:	02079693          	sll	a3,a5,0x20
   10dec:	0089f733          	and	a4,s3,s0
   10df0:	00d76733          	or	a4,a4,a3
   10df4:	02041a93          	sll	s5,s0,0x20
   10df8:	0007869b          	sext.w	a3,a5
   10dfc:	00112e27          	fsw	ft1,28(sp)
   10e00:	02079793          	sll	a5,a5,0x20
   10e04:	02212027          	fsw	ft2,32(sp)
   10e08:	02312227          	fsw	ft3,36(sp)
   10e0c:	02412427          	fsw	ft4,40(sp)
   10e10:	02512627          	fsw	ft5,44(sp)
   10e14:	02612827          	fsw	ft6,48(sp)
   10e18:	02712a27          	fsw	ft7,52(sp)
   10e1c:	02e13c23          	sd	a4,56(sp)
   10e20:	20000d53          	fmv.s	fs10,ft0
   10e24:	20108cd3          	fmv.s	fs9,ft1
   10e28:	20210c53          	fmv.s	fs8,ft2
   10e2c:	20318bd3          	fmv.s	fs7,ft3
   10e30:	20420b53          	fmv.s	fs6,ft4
   10e34:	20528ad3          	fmv.s	fs5,ft5
   10e38:	20630a53          	fmv.s	fs4,ft6
   10e3c:	207389d3          	fmv.s	fs3,ft7
   10e40:	020ada93          	srl	s5,s5,0x20
   10e44:	0207d793          	srl	a5,a5,0x20
   10e48:	36968e63          	beq	a3,s1,111c4 <_Z17intersect_bucketsPK7TreeletPN3rtm3HitE+0x448>
   10e4c:	00379513          	sll	a0,a5,0x3
   10e50:	40f50533          	sub	a0,a0,a5
   10e54:	00d51513          	sll	a0,a0,0xd
   10e58:	00410713          	add	a4,sp,4
   10e5c:	04010693          	add	a3,sp,64
   10e60:	00810613          	add	a2,sp,8
   10e64:	01810593          	add	a1,sp,24
   10e68:	00a90533          	add	a0,s2,a0
   10e6c:	00712427          	fsw	ft7,8(sp)
   10e70:	00012223          	sw	zero,4(sp)
   10e74:	fffff097          	auipc	ra,0xfffff
   10e78:	548080e7          	jalr	1352(ra) # 103bc <_Z17intersect_treeletRK7TreeletRKN3rtm3RayERNS2_3HitEPjRj>
   10e7c:	02050463          	beqz	a0,10ea4 <_Z17intersect_bucketsPK7TreeletPN3rtm3HitE+0x128>
   10e80:	00812987          	flw	fs3,8(sp)
   10e84:	004a9a93          	sll	s5,s5,0x4
   10e88:	015a0ab3          	add	s5,s4,s5
   10e8c:	213987d3          	fmv.s	fa5,fs3
   10e90:	00c12807          	flw	fa6,12(sp)
   10e94:	01012887          	flw	fa7,16(sp)
   10e98:	01412907          	flw	fs2,20(sp)
   10e9c:	00fab00b          	cshit	fa5,0(s5)
   10ea0:	03312a27          	fsw	fs3,52(sp)
   10ea4:	00412783          	lw	a5,4(sp)
   10ea8:	f20788e3          	beqz	a5,10dd8 <_Z17intersect_bucketsPK7TreeletPN3rtm3HitE+0x5c>
   10eac:	fff7871b          	addw	a4,a5,-1
   10eb0:	02071613          	sll	a2,a4,0x20
   10eb4:	01e65693          	srl	a3,a2,0x1e
   10eb8:	08068693          	add	a3,a3,128
   10ebc:	002686b3          	add	a3,a3,sp
   10ec0:	fc06a683          	lw	a3,-64(a3)
   10ec4:	21ad0053          	fmv.s	ft0,fs10
   10ec8:	219c80d3          	fmv.s	ft1,fs9
   10ecc:	218c0153          	fmv.s	ft2,fs8
   10ed0:	217b81d3          	fmv.s	ft3,fs7
   10ed4:	216b0253          	fmv.s	ft4,fs6
   10ed8:	215a82d3          	fmv.s	ft5,fs5
   10edc:	214a0353          	fmv.s	ft6,fs4
   10ee0:	213983d3          	fmv.s	ft7,fs3
   10ee4:	f0040453          	fmv.w.x	fs0,s0
   10ee8:	f00684d3          	fmv.w.x	fs1,a3
   10eec:	0007061b          	sext.w	a2,a4
   10ef0:	00e12223          	sw	a4,4(sp)
   10ef4:	02d12e23          	sw	a3,60(sp)
   10ef8:	1000200b          	swi	ft0,256(zero) # 100 <main-0xffb0>
   10efc:	ec060ee3          	beqz	a2,10dd8 <_Z17intersect_bucketsPK7TreeletPN3rtm3HitE+0x5c>
   10f00:	ffe7871b          	addw	a4,a5,-2
   10f04:	02071613          	sll	a2,a4,0x20
   10f08:	01e65693          	srl	a3,a2,0x1e
   10f0c:	08068693          	add	a3,a3,128
   10f10:	002686b3          	add	a3,a3,sp
   10f14:	fc06a683          	lw	a3,-64(a3)
   10f18:	0007061b          	sext.w	a2,a4
   10f1c:	00e12223          	sw	a4,4(sp)
   10f20:	f00684d3          	fmv.w.x	fs1,a3
   10f24:	02d12e23          	sw	a3,60(sp)
   10f28:	1000200b          	swi	ft0,256(zero) # 100 <main-0xffb0>
   10f2c:	ea0606e3          	beqz	a2,10dd8 <_Z17intersect_bucketsPK7TreeletPN3rtm3HitE+0x5c>
   10f30:	ffd7871b          	addw	a4,a5,-3
   10f34:	02071613          	sll	a2,a4,0x20
   10f38:	01e65693          	srl	a3,a2,0x1e
   10f3c:	08068693          	add	a3,a3,128
   10f40:	002686b3          	add	a3,a3,sp
   10f44:	fc06a683          	lw	a3,-64(a3)
   10f48:	0007061b          	sext.w	a2,a4
   10f4c:	00e12223          	sw	a4,4(sp)
   10f50:	f00684d3          	fmv.w.x	fs1,a3
   10f54:	02d12e23          	sw	a3,60(sp)
   10f58:	1000200b          	swi	ft0,256(zero) # 100 <main-0xffb0>
   10f5c:	e6060ee3          	beqz	a2,10dd8 <_Z17intersect_bucketsPK7TreeletPN3rtm3HitE+0x5c>
   10f60:	ffc7871b          	addw	a4,a5,-4
   10f64:	02071613          	sll	a2,a4,0x20
   10f68:	01e65693          	srl	a3,a2,0x1e
   10f6c:	08068693          	add	a3,a3,128
   10f70:	002686b3          	add	a3,a3,sp
   10f74:	fc06a683          	lw	a3,-64(a3)
   10f78:	0007061b          	sext.w	a2,a4
   10f7c:	00e12223          	sw	a4,4(sp)
   10f80:	f00684d3          	fmv.w.x	fs1,a3
   10f84:	02d12e23          	sw	a3,60(sp)
   10f88:	1000200b          	swi	ft0,256(zero) # 100 <main-0xffb0>
   10f8c:	e40606e3          	beqz	a2,10dd8 <_Z17intersect_bucketsPK7TreeletPN3rtm3HitE+0x5c>
   10f90:	ffb7871b          	addw	a4,a5,-5
   10f94:	02071613          	sll	a2,a4,0x20
   10f98:	01e65693          	srl	a3,a2,0x1e
   10f9c:	08068693          	add	a3,a3,128
   10fa0:	002686b3          	add	a3,a3,sp
   10fa4:	fc06a683          	lw	a3,-64(a3)
   10fa8:	0007061b          	sext.w	a2,a4
   10fac:	00e12223          	sw	a4,4(sp)
   10fb0:	f00684d3          	fmv.w.x	fs1,a3
   10fb4:	02d12e23          	sw	a3,60(sp)
   10fb8:	1000200b          	swi	ft0,256(zero) # 100 <main-0xffb0>
   10fbc:	e0060ee3          	beqz	a2,10dd8 <_Z17intersect_bucketsPK7TreeletPN3rtm3HitE+0x5c>
   10fc0:	ffa7871b          	addw	a4,a5,-6
   10fc4:	02071613          	sll	a2,a4,0x20
   10fc8:	01e65693          	srl	a3,a2,0x1e
   10fcc:	08068693          	add	a3,a3,128
   10fd0:	002686b3          	add	a3,a3,sp
   10fd4:	fc06a683          	lw	a3,-64(a3)
   10fd8:	0007061b          	sext.w	a2,a4
   10fdc:	00e12223          	sw	a4,4(sp)
   10fe0:	f00684d3          	fmv.w.x	fs1,a3
   10fe4:	02d12e23          	sw	a3,60(sp)
   10fe8:	1000200b          	swi	ft0,256(zero) # 100 <main-0xffb0>
   10fec:	de0606e3          	beqz	a2,10dd8 <_Z17intersect_bucketsPK7TreeletPN3rtm3HitE+0x5c>
   10ff0:	ff97871b          	addw	a4,a5,-7
   10ff4:	02071613          	sll	a2,a4,0x20
   10ff8:	01e65693          	srl	a3,a2,0x1e
   10ffc:	08068693          	add	a3,a3,128
   11000:	002686b3          	add	a3,a3,sp
   11004:	fc06a683          	lw	a3,-64(a3)
   11008:	0007061b          	sext.w	a2,a4
   1100c:	00e12223          	sw	a4,4(sp)
   11010:	f00684d3          	fmv.w.x	fs1,a3
   11014:	02d12e23          	sw	a3,60(sp)
   11018:	1000200b          	swi	ft0,256(zero) # 100 <main-0xffb0>
   1101c:	da060ee3          	beqz	a2,10dd8 <_Z17intersect_bucketsPK7TreeletPN3rtm3HitE+0x5c>
   11020:	ff87871b          	addw	a4,a5,-8
   11024:	02071613          	sll	a2,a4,0x20
   11028:	01e65693          	srl	a3,a2,0x1e
   1102c:	08068693          	add	a3,a3,128
   11030:	002686b3          	add	a3,a3,sp
   11034:	fc06a683          	lw	a3,-64(a3)
   11038:	0007061b          	sext.w	a2,a4
   1103c:	00e12223          	sw	a4,4(sp)
   11040:	f00684d3          	fmv.w.x	fs1,a3
   11044:	02d12e23          	sw	a3,60(sp)
   11048:	1000200b          	swi	ft0,256(zero) # 100 <main-0xffb0>
   1104c:	d80606e3          	beqz	a2,10dd8 <_Z17intersect_bucketsPK7TreeletPN3rtm3HitE+0x5c>
   11050:	ff77871b          	addw	a4,a5,-9
   11054:	02071613          	sll	a2,a4,0x20
   11058:	01e65693          	srl	a3,a2,0x1e
   1105c:	08068693          	add	a3,a3,128
   11060:	002686b3          	add	a3,a3,sp
   11064:	fc06a683          	lw	a3,-64(a3)
   11068:	0007061b          	sext.w	a2,a4
   1106c:	00e12223          	sw	a4,4(sp)
   11070:	f00684d3          	fmv.w.x	fs1,a3
   11074:	02d12e23          	sw	a3,60(sp)
   11078:	1000200b          	swi	ft0,256(zero) # 100 <main-0xffb0>
   1107c:	d4060ee3          	beqz	a2,10dd8 <_Z17intersect_bucketsPK7TreeletPN3rtm3HitE+0x5c>
   11080:	ff67871b          	addw	a4,a5,-10
   11084:	02071613          	sll	a2,a4,0x20
   11088:	01e65693          	srl	a3,a2,0x1e
   1108c:	08068693          	add	a3,a3,128
   11090:	002686b3          	add	a3,a3,sp
   11094:	fc06a683          	lw	a3,-64(a3)
   11098:	0007061b          	sext.w	a2,a4
   1109c:	00e12223          	sw	a4,4(sp)
   110a0:	f00684d3          	fmv.w.x	fs1,a3
   110a4:	02d12e23          	sw	a3,60(sp)
   110a8:	1000200b          	swi	ft0,256(zero) # 100 <main-0xffb0>
   110ac:	d20606e3          	beqz	a2,10dd8 <_Z17intersect_bucketsPK7TreeletPN3rtm3HitE+0x5c>
   110b0:	ff57871b          	addw	a4,a5,-11
   110b4:	02071613          	sll	a2,a4,0x20
   110b8:	01e65693          	srl	a3,a2,0x1e
   110bc:	08068693          	add	a3,a3,128
   110c0:	002686b3          	add	a3,a3,sp
   110c4:	fc06a683          	lw	a3,-64(a3)
   110c8:	0007061b          	sext.w	a2,a4
   110cc:	00e12223          	sw	a4,4(sp)
   110d0:	f00684d3          	fmv.w.x	fs1,a3
   110d4:	02d12e23          	sw	a3,60(sp)
   110d8:	1000200b          	swi	ft0,256(zero) # 100 <main-0xffb0>
   110dc:	ce060ee3          	beqz	a2,10dd8 <_Z17intersect_bucketsPK7TreeletPN3rtm3HitE+0x5c>
   110e0:	ff47871b          	addw	a4,a5,-12
   110e4:	02071613          	sll	a2,a4,0x20
   110e8:	01e65693          	srl	a3,a2,0x1e
   110ec:	08068693          	add	a3,a3,128
   110f0:	002686b3          	add	a3,a3,sp
   110f4:	fc06a683          	lw	a3,-64(a3)
   110f8:	0007061b          	sext.w	a2,a4
   110fc:	00e12223          	sw	a4,4(sp)
   11100:	f00684d3          	fmv.w.x	fs1,a3
   11104:	02d12e23          	sw	a3,60(sp)
   11108:	1000200b          	swi	ft0,256(zero) # 100 <main-0xffb0>
   1110c:	cc0606e3          	beqz	a2,10dd8 <_Z17intersect_bucketsPK7TreeletPN3rtm3HitE+0x5c>
   11110:	ff37871b          	addw	a4,a5,-13
   11114:	02071613          	sll	a2,a4,0x20
   11118:	01e65693          	srl	a3,a2,0x1e
   1111c:	08068693          	add	a3,a3,128
   11120:	002686b3          	add	a3,a3,sp
   11124:	fc06a683          	lw	a3,-64(a3)
   11128:	0007061b          	sext.w	a2,a4
   1112c:	00e12223          	sw	a4,4(sp)
   11130:	f00684d3          	fmv.w.x	fs1,a3
   11134:	02d12e23          	sw	a3,60(sp)
   11138:	1000200b          	swi	ft0,256(zero) # 100 <main-0xffb0>
   1113c:	c8060ee3          	beqz	a2,10dd8 <_Z17intersect_bucketsPK7TreeletPN3rtm3HitE+0x5c>
   11140:	ff27871b          	addw	a4,a5,-14
   11144:	02071613          	sll	a2,a4,0x20
   11148:	01e65693          	srl	a3,a2,0x1e
   1114c:	08068693          	add	a3,a3,128
   11150:	002686b3          	add	a3,a3,sp
   11154:	fc06a683          	lw	a3,-64(a3)
   11158:	0007061b          	sext.w	a2,a4
   1115c:	00e12223          	sw	a4,4(sp)
   11160:	f00684d3          	fmv.w.x	fs1,a3
   11164:	02d12e23          	sw	a3,60(sp)
   11168:	1000200b          	swi	ft0,256(zero) # 100 <main-0xffb0>
   1116c:	c60606e3          	beqz	a2,10dd8 <_Z17intersect_bucketsPK7TreeletPN3rtm3HitE+0x5c>
   11170:	ff17871b          	addw	a4,a5,-15
   11174:	02071613          	sll	a2,a4,0x20
   11178:	01e65693          	srl	a3,a2,0x1e
   1117c:	08068693          	add	a3,a3,128
   11180:	002686b3          	add	a3,a3,sp
   11184:	fc06a683          	lw	a3,-64(a3)
   11188:	0007061b          	sext.w	a2,a4
   1118c:	00e12223          	sw	a4,4(sp)
   11190:	f00684d3          	fmv.w.x	fs1,a3
   11194:	02d12e23          	sw	a3,60(sp)
   11198:	1000200b          	swi	ft0,256(zero) # 100 <main-0xffb0>
   1119c:	c2060ee3          	beqz	a2,10dd8 <_Z17intersect_bucketsPK7TreeletPN3rtm3HitE+0x5c>
   111a0:	ff07879b          	addw	a5,a5,-16
   111a4:	02079693          	sll	a3,a5,0x20
   111a8:	01e6d713          	srl	a4,a3,0x1e
   111ac:	08070713          	add	a4,a4,128
   111b0:	00270733          	add	a4,a4,sp
   111b4:	fc072487          	flw	fs1,-64(a4)
   111b8:	00f12223          	sw	a5,4(sp)
   111bc:	1000200b          	swi	ft0,256(zero) # 100 <main-0xffb0>
   111c0:	c19ff06f          	j	10dd8 <_Z17intersect_bucketsPK7TreeletPN3rtm3HitE+0x5c>
   111c4:	0e813083          	ld	ra,232(sp)
   111c8:	0e013403          	ld	s0,224(sp)
   111cc:	0d813483          	ld	s1,216(sp)
   111d0:	0d013903          	ld	s2,208(sp)
   111d4:	0c813983          	ld	s3,200(sp)
   111d8:	0c013a03          	ld	s4,192(sp)
   111dc:	0b813a83          	ld	s5,184(sp)
   111e0:	0ac12407          	flw	fs0,172(sp)
   111e4:	0a812487          	flw	fs1,168(sp)
   111e8:	0a412907          	flw	fs2,164(sp)
   111ec:	0a012987          	flw	fs3,160(sp)
   111f0:	09c12a07          	flw	fs4,156(sp)
   111f4:	09812a87          	flw	fs5,152(sp)
   111f8:	09412b07          	flw	fs6,148(sp)
   111fc:	09012b87          	flw	fs7,144(sp)
   11200:	08c12c07          	flw	fs8,140(sp)
   11204:	08812c87          	flw	fs9,136(sp)
   11208:	08412d07          	flw	fs10,132(sp)
   1120c:	0f010113          	add	sp,sp,240
   11210:	00008067          	ret
