
./riscv/kernel:     file format elf64-littleriscv
./riscv/kernel
architecture: riscv:rv64, flags 0x00000112:
EXEC_P, HAS_SYMS, D_PAGED
start address 0x00000000000100b0

Program Header:
0x70000003 off    0x000000000000207b vaddr 0x0000000000000000 paddr 0x0000000000000000 align 2**0
         filesz 0x000000000000003d memsz 0x0000000000000000 flags r--
    LOAD off    0x0000000000000000 vaddr 0x0000000000010000 paddr 0x0000000000010000 align 2**12
         filesz 0x0000000000002060 memsz 0x0000000000002060 flags r-x

Sections:
Idx Name          Size      VMA               LMA               File off  Algn
  0 .text         00000e54  00000000000100b0  00000000000100b0  000000b0  2**2
                  CONTENTS, ALLOC, LOAD, READONLY, CODE
  1 .eh_frame     00000140  0000000000010f08  0000000000010f08  00000f08  2**3
                  CONTENTS, ALLOC, LOAD, READONLY, DATA
  2 .sdata        00000018  0000000000012048  0000000000012048  00002048  2**2
                  CONTENTS, ALLOC, LOAD, READONLY, DATA
  3 .comment      0000001b  0000000000000000  0000000000000000  00002060  2**0
                  CONTENTS, READONLY
  4 .riscv.attributes 0000003d  0000000000000000  0000000000000000  0000207b  2**0
                  CONTENTS, READONLY
SYMBOL TABLE:
00000000000100b0 l    d  .text	0000000000000000 .text
0000000000010f08 l    d  .eh_frame	0000000000000000 .eh_frame
0000000000012048 l    d  .sdata	0000000000000000 .sdata
0000000000000000 l    d  .comment	0000000000000000 .comment
0000000000000000 l    d  .riscv.attributes	0000000000000000 .riscv.attributes
0000000000000000 l    df *ABS*	0000000000000000 main.cpp
00000000000100d0 l     F .text	00000000000003c8 _ZL6kernelRK10KernelArgs.constprop.0
0000000000012848 g       *ABS*	0000000000000000 __global_pointer$
0000000000012048 g       .sdata	0000000000000000 __SDATA_BEGIN__
0000000000010498  w    F .text	00000000000005d4 _Z17intersect_treeletRK7TreeletRKN3rtm3RayERNS2_3HitEPjRj
0000000000010a6c  w    F .text	0000000000000498 _Z17intersect_bucketsPK7TreeletPN3rtm3HitE
0000000000012060 g       .sdata	0000000000000000 __BSS_END__
0000000000012060 g       .sdata	0000000000000000 __bss_start
00000000000100b0 g     F .text	0000000000000020 main
0000000000012048 g       .sdata	0000000000000000 __DATA_BEGIN__
0000000000012060 g       .sdata	0000000000000000 _edata
0000000000012060 g       .sdata	0000000000000000 _end



Disassembly of section .text:

00000000000100b0 <main>:
   100b0:	ff010113          	add	sp,sp,-16
   100b4:	00113423          	sd	ra,8(sp)
   100b8:	00000097          	auipc	ra,0x0
   100bc:	018080e7          	jalr	24(ra) # 100d0 <_ZL6kernelRK10KernelArgs.constprop.0>
   100c0:	00813083          	ld	ra,8(sp)
   100c4:	00000513          	li	a0,0
   100c8:	01010113          	add	sp,sp,16
   100cc:	00008067          	ret

00000000000100d0 <_ZL6kernelRK10KernelArgs.constprop.0>:
   100d0:	ee010113          	add	sp,sp,-288
   100d4:	10113c23          	sd	ra,280(sp)
   100d8:	10813823          	sd	s0,272(sp)
   100dc:	10913423          	sd	s1,264(sp)
   100e0:	0f212a27          	fsw	fs2,244(sp)
   100e4:	0000058b          	fchthrd	a1
   100e8:	10802403          	lw	s0,264(zero) # 108 <main-0xffa8>
   100ec:	0005849b          	sext.w	s1,a1
   100f0:	1e84f063          	bgeu	s1,s0,102d0 <_ZL6kernelRK10KernelArgs.constprop.0+0x200>
   100f4:	000127b7          	lui	a5,0x12
   100f8:	0f512427          	fsw	fs5,232(sp)
   100fc:	0507aa87          	flw	fs5,80(a5) # 12050 <__DATA_BEGIN__+0x8>
   10100:	000127b7          	lui	a5,0x12
   10104:	0f412627          	fsw	fs4,236(sp)
   10108:	00012737          	lui	a4,0x12
   1010c:	0547aa07          	flw	fs4,84(a5) # 12054 <__DATA_BEGIN__+0xc>
   10110:	000127b7          	lui	a5,0x12
   10114:	0f312827          	fsw	fs3,240(sp)
   10118:	0587a187          	flw	ft3,88(a5) # 12058 <__DATA_BEGIN__+0x10>
   1011c:	04c72987          	flw	fs3,76(a4) # 1204c <__DATA_BEGIN__+0x4>
   10120:	0e812e27          	fsw	fs0,252(sp)
   10124:	0e912c27          	fsw	fs1,248(sp)
   10128:	10002783          	lw	a5,256(zero) # 100 <main-0xffb0>
   1012c:	12002887          	flw	fa7,288(zero) # 120 <main-0xff90>
   10130:	13c02307          	flw	ft6,316(zero) # 13c <main-0xff74>
   10134:	02f4d83b          	divuw	a6,s1,a5
   10138:	14002687          	flw	fa3,320(zero) # 140 <main-0xff70>
   1013c:	14402707          	flw	fa4,324(zero) # 144 <main-0xff6c>
   10140:	11c02807          	flw	fa6,284(zero) # 11c <main-0xff94>
   10144:	13402287          	flw	ft5,308(zero) # 134 <main-0xff7c>
   10148:	13002207          	flw	ft4,304(zero) # 130 <main-0xff80>
   1014c:	13802387          	flw	ft7,312(zero) # 138 <main-0xff78>
   10150:	14802507          	flw	fa0,328(zero) # 148 <main-0xff68>
   10154:	14c02587          	flw	fa1,332(zero) # 14c <main-0xff64>
   10158:	15002607          	flw	fa2,336(zero) # 150 <main-0xff60>
   1015c:	12402007          	flw	ft0,292(zero) # 124 <main-0xff8c>
   10160:	12802087          	flw	ft1,296(zero) # 128 <main-0xff88>
   10164:	12c02107          	flw	ft2,300(zero) # 12c <main-0xff84>
   10168:	17003503          	ld	a0,368(zero) # 170 <main-0xff40>
   1016c:	02410713          	add	a4,sp,36
   10170:	02012c27          	fsw	ft0,56(sp)
   10174:	00012e27          	fsw	ft0,28(sp)
   10178:	02112e27          	fsw	ft1,60(sp)
   1017c:	00112c27          	fsw	ft1,24(sp)
   10180:	04212027          	fsw	ft2,64(sp)
   10184:	00212a27          	fsw	ft2,20(sp)
   10188:	04312227          	fsw	ft3,68(sp)
   1018c:	06010693          	add	a3,sp,96
   10190:	02810613          	add	a2,sp,40
   10194:	03810593          	add	a1,sp,56
   10198:	05312a27          	fsw	fs3,84(sp)
   1019c:	04912c23          	sw	s1,88(sp)
   101a0:	04012e23          	sw	zero,92(sp)
   101a4:	03312427          	fsw	fs3,40(sp)
   101a8:	02012223          	sw	zero,36(sp)
   101ac:	02f4f7bb          	remuw	a5,s1,a5
   101b0:	d01877d3          	fcvt.s.wu	fa5,a6
   101b4:	0157f7d3          	fadd.s	fa5,fa5,fs5
   101b8:	a117f7c3          	fmadd.s	fa5,fa5,fa7,fs4
   101bc:	10d7f6d3          	fmul.s	fa3,fa5,fa3
   101c0:	10e7f753          	fmul.s	fa4,fa5,fa4
   101c4:	1067f7d3          	fmul.s	fa5,fa5,ft6
   101c8:	d017f353          	fcvt.s.wu	ft6,a5
   101cc:	01537353          	fadd.s	ft6,ft6,fs5
   101d0:	a1037343          	fmadd.s	ft6,ft6,fa6,fs4
   101d4:	78437243          	fmadd.s	ft4,ft6,ft4,fa5
   101d8:	685372c3          	fmadd.s	ft5,ft6,ft5,fa3
   101dc:	70737343          	fmadd.s	ft6,ft6,ft7,fa4
   101e0:	08a27253          	fsub.s	ft4,ft4,fa0
   101e4:	08b2f2d3          	fsub.s	ft5,ft5,fa1
   101e8:	08c37353          	fsub.s	ft6,ft6,fa2
   101ec:	04412427          	fsw	ft4,72(sp)
   101f0:	00412827          	fsw	ft4,16(sp)
   101f4:	04512627          	fsw	ft5,76(sp)
   101f8:	00512627          	fsw	ft5,12(sp)
   101fc:	04612827          	fsw	ft6,80(sp)
   10200:	00612427          	fsw	ft6,8(sp)
   10204:	00000097          	auipc	ra,0x0
   10208:	294080e7          	jalr	660(ra) # 10498 <_Z17intersect_treeletRK7TreeletRKN3rtm3RayERNS2_3HitEPjRj>
   1020c:	000127b7          	lui	a5,0x12
   10210:	213983d3          	fmv.s	ft7,fs3
   10214:	00812307          	flw	ft6,8(sp)
   10218:	00c12287          	flw	ft5,12(sp)
   1021c:	01012207          	flw	ft4,16(sp)
   10220:	0587a187          	flw	ft3,88(a5) # 12058 <__DATA_BEGIN__+0x10>
   10224:	01412107          	flw	ft2,20(sp)
   10228:	01812087          	flw	ft1,24(sp)
   1022c:	01c12007          	flw	ft0,28(sp)
   10230:	02050863          	beqz	a0,10260 <_ZL6kernelRK10KernelArgs.constprop.0+0x190>
   10234:	02049793          	sll	a5,s1,0x20
   10238:	01c7d713          	srl	a4,a5,0x1c
   1023c:	02812387          	flw	ft7,40(sp)
   10240:	16803783          	ld	a5,360(zero) # 168 <main-0xff48>
   10244:	02c12807          	flw	fa6,44(sp)
   10248:	207387d3          	fmv.s	fa5,ft7
   1024c:	00e787b3          	add	a5,a5,a4
   10250:	03012887          	flw	fa7,48(sp)
   10254:	03412907          	flw	fs2,52(sp)
   10258:	00f7b00b          	cshit	fa5,0(a5)
   1025c:	04712a27          	fsw	ft7,84(sp)
   10260:	02412703          	lw	a4,36(sp)
   10264:	04070463          	beqz	a4,102ac <_ZL6kernelRK10KernelArgs.constprop.0+0x1dc>
   10268:	fff7069b          	addw	a3,a4,-1
   1026c:	02069713          	sll	a4,a3,0x20
   10270:	01e75793          	srl	a5,a4,0x1e
   10274:	06010713          	add	a4,sp,96
   10278:	00048593          	mv	a1,s1
   1027c:	00f707b3          	add	a5,a4,a5
   10280:	0080006f          	j	10288 <_ZL6kernelRK10KernelArgs.constprop.0+0x1b8>
   10284:	fff7069b          	addw	a3,a4,-1
   10288:	0007a603          	lw	a2,0(a5)
   1028c:	f0058453          	fmv.w.x	fs0,a1
   10290:	0006871b          	sext.w	a4,a3
   10294:	f00604d3          	fmv.w.x	fs1,a2
   10298:	02d12223          	sw	a3,36(sp)
   1029c:	04c12e23          	sw	a2,92(sp)
   102a0:	1000200b          	swi	ft0,256(zero) # 100 <main-0xffb0>
   102a4:	ffc78793          	add	a5,a5,-4
   102a8:	fc071ee3          	bnez	a4,10284 <_ZL6kernelRK10KernelArgs.constprop.0+0x1b4>
   102ac:	0000058b          	fchthrd	a1
   102b0:	10802403          	lw	s0,264(zero) # 108 <main-0xffa8>
   102b4:	0005849b          	sext.w	s1,a1
   102b8:	e684e8e3          	bltu	s1,s0,10128 <_ZL6kernelRK10KernelArgs.constprop.0+0x58>
   102bc:	0fc12407          	flw	fs0,252(sp)
   102c0:	0f812487          	flw	fs1,248(sp)
   102c4:	0f012987          	flw	fs3,240(sp)
   102c8:	0ec12a07          	flw	fs4,236(sp)
   102cc:	0e812a87          	flw	fs5,232(sp)
   102d0:	16803583          	ld	a1,360(zero) # 168 <main-0xff48>
   102d4:	17003503          	ld	a0,368(zero) # 170 <main-0xff40>
   102d8:	00000097          	auipc	ra,0x0
   102dc:	794080e7          	jalr	1940(ra) # 10a6c <_Z17intersect_bucketsPK7TreeletPN3rtm3HitE>
   102e0:	06012023          	sw	zero,96(sp)
   102e4:	06012683          	lw	a3,96(sp)
   102e8:	3ff00793          	li	a5,1023
   102ec:	3ff00713          	li	a4,1023
   102f0:	00d7ec63          	bltu	a5,a3,10308 <_ZL6kernelRK10KernelArgs.constprop.0+0x238>
   102f4:	06012783          	lw	a5,96(sp)
   102f8:	0017879b          	addw	a5,a5,1
   102fc:	06f12023          	sw	a5,96(sp)
   10300:	06012783          	lw	a5,96(sp)
   10304:	fef778e3          	bgeu	a4,a5,102f4 <_ZL6kernelRK10KernelArgs.constprop.0+0x224>
   10308:	10802703          	lw	a4,264(zero) # 108 <main-0xffa8>
   1030c:	408487bb          	subw	a5,s1,s0
   10310:	06e7fa63          	bgeu	a5,a4,10384 <_ZL6kernelRK10KernelArgs.constprop.0+0x2b4>
   10314:	00012737          	lui	a4,0x12
   10318:	04c72007          	flw	ft0,76(a4) # 1204c <__DATA_BEGIN__+0x4>
   1031c:	00012737          	lui	a4,0x12
   10320:	04872507          	flw	fa0,72(a4) # 12048 <__DATA_BEGIN__>
   10324:	00012737          	lui	a4,0x12
   10328:	05072587          	flw	fa1,80(a4) # 12050 <__DATA_BEGIN__+0x8>
   1032c:	00012737          	lui	a4,0x12
   10330:	16803583          	ld	a1,360(zero) # 168 <main-0xff48>
   10334:	16003603          	ld	a2,352(zero) # 160 <main-0xff50>
   10338:	f0000153          	fmv.w.x	ft2,zero
   1033c:	05c72087          	flw	ft1,92(a4) # 1205c <__DATA_BEGIN__+0x14>
   10340:	ff000537          	lui	a0,0xff000
   10344:	ff000837          	lui	a6,0xff000
   10348:	02079793          	sll	a5,a5,0x20
   1034c:	0207d793          	srl	a5,a5,0x20
   10350:	00479713          	sll	a4,a5,0x4
   10354:	00e58733          	add	a4,a1,a4
   10358:	0007478b          	lhit	fa5,0(a4)
   1035c:	a0079753          	flt.s	a4,fa5,ft0
   10360:	00279793          	sll	a5,a5,0x2
   10364:	01212427          	fsw	fs2,8(sp)
   10368:	00f607b3          	add	a5,a2,a5
   1036c:	02071863          	bnez	a4,1039c <_ZL6kernelRK10KernelArgs.constprop.0+0x2cc>
   10370:	00a7a023          	sw	a0,0(a5)
   10374:	0000078b          	fchthrd	a5
   10378:	10802703          	lw	a4,264(zero) # 108 <main-0xffa8>
   1037c:	40e787bb          	subw	a5,a5,a4
   10380:	fce7e4e3          	bltu	a5,a4,10348 <_ZL6kernelRK10KernelArgs.constprop.0+0x278>
   10384:	11813083          	ld	ra,280(sp)
   10388:	11013403          	ld	s0,272(sp)
   1038c:	10813483          	ld	s1,264(sp)
   10390:	0f412907          	flw	fs2,244(sp)
   10394:	12010113          	add	sp,sp,288
   10398:	00008067          	ret
   1039c:	00816703          	lwu	a4,8(sp)
   103a0:	00371693          	sll	a3,a4,0x3
   103a4:	00e686b3          	add	a3,a3,a4
   103a8:	17803703          	ld	a4,376(zero) # 178 <main-0xff38>
   103ac:	00269693          	sll	a3,a3,0x2
   103b0:	00d70733          	add	a4,a4,a3
   103b4:	01872607          	flw	fa2,24(a4)
   103b8:	02072307          	flw	ft6,32(a4)
   103bc:	00072707          	flw	fa4,0(a4)
   103c0:	01472787          	flw	fa5,20(a4)
   103c4:	01c72287          	flw	ft5,28(a4)
   103c8:	08c77753          	fsub.s	fa4,fa4,fa2
   103cc:	0867f7d3          	fsub.s	fa5,fa5,ft6
   103d0:	00872687          	flw	fa3,8(a4)
   103d4:	00c72187          	flw	ft3,12(a4)
   103d8:	01072207          	flw	ft4,16(a4)
   103dc:	0866f6d3          	fsub.s	fa3,fa3,ft6
   103e0:	10f773d3          	fmul.s	ft7,fa4,fa5
   103e4:	08c1f1d3          	fsub.s	ft3,ft3,fa2
   103e8:	08527253          	fsub.s	ft4,ft4,ft5
   103ec:	00472607          	flw	fa2,4(a4)
   103f0:	08567653          	fsub.s	fa2,fa2,ft5
   103f4:	1046f353          	fmul.s	ft6,fa3,ft4
   103f8:	3836f6c7          	fmsub.s	fa3,fa3,ft3,ft7
   103fc:	103671d3          	fmul.s	ft3,fa2,ft3
   10400:	30f677c7          	fmsub.s	fa5,fa2,fa5,ft6
   10404:	10d6f653          	fmul.s	fa2,fa3,fa3
   10408:	18477747          	fmsub.s	fa4,fa4,ft4,ft3
   1040c:	60f7f643          	fmadd.s	fa2,fa5,fa5,fa2
   10410:	60e77643          	fmadd.s	fa2,fa4,fa4,fa2
   10414:	58067653          	fsqrt.s	fa2,fa2
   10418:	18c6f6d3          	fdiv.s	fa3,fa3,fa2
   1041c:	18c77753          	fdiv.s	fa4,fa4,fa2
   10420:	00a6f6d3          	fadd.s	fa3,fa3,fa0
   10424:	10b6f6d3          	fmul.s	fa3,fa3,fa1
   10428:	282696d3          	fmax.s	fa3,fa3,ft2
   1042c:	28a686d3          	fmin.s	fa3,fa3,fa0
   10430:	5816f6c3          	fmadd.s	fa3,fa3,ft1,fa1
   10434:	18c7f7d3          	fdiv.s	fa5,fa5,fa2
   10438:	00a77753          	fadd.s	fa4,fa4,fa0
   1043c:	c0169753          	fcvt.wu.s	a4,fa3,rtz
   10440:	0087171b          	sllw	a4,a4,0x8
   10444:	10b77753          	fmul.s	fa4,fa4,fa1
   10448:	28271753          	fmax.s	fa4,fa4,ft2
   1044c:	28a70753          	fmin.s	fa4,fa4,fa0
   10450:	58177743          	fmadd.s	fa4,fa4,ft1,fa1
   10454:	00a7f7d3          	fadd.s	fa5,fa5,fa0
   10458:	c01716d3          	fcvt.wu.s	a3,fa4,rtz
   1045c:	10b7f7d3          	fmul.s	fa5,fa5,fa1
   10460:	0106969b          	sllw	a3,a3,0x10
   10464:	00d76733          	or	a4,a4,a3
   10468:	282797d3          	fmax.s	fa5,fa5,ft2
   1046c:	28a787d3          	fmin.s	fa5,fa5,fa0
   10470:	5817f7c3          	fmadd.s	fa5,fa5,ft1,fa1
   10474:	c01796d3          	fcvt.wu.s	a3,fa5,rtz
   10478:	00d76733          	or	a4,a4,a3
   1047c:	01076733          	or	a4,a4,a6
   10480:	00e7a023          	sw	a4,0(a5)
   10484:	0000078b          	fchthrd	a5
   10488:	10802703          	lw	a4,264(zero) # 108 <main-0xffa8>
   1048c:	40e787bb          	subw	a5,a5,a4
   10490:	eae7ece3          	bltu	a5,a4,10348 <_ZL6kernelRK10KernelArgs.constprop.0+0x278>
   10494:	ef1ff06f          	j	10384 <_ZL6kernelRK10KernelArgs.constprop.0+0x2b4>

0000000000010498 <_Z17intersect_treeletRK7TreeletRKN3rtm3RayERNS2_3HitEPjRj>:
   10498:	cb010113          	add	sp,sp,-848
   1049c:	00012837          	lui	a6,0x12
   104a0:	04882507          	flw	fa0,72(a6) # 12048 <__DATA_BEGIN__>
   104a4:	0105af07          	flw	ft10,16(a1)
   104a8:	0145af87          	flw	ft11,20(a1)
   104ac:	32812e27          	fsw	fs0,828(sp)
   104b0:	0185a407          	flw	fs0,24(a1)
   104b4:	19e57853          	fdiv.s	fa6,fa0,ft10
   104b8:	00050e13          	mv	t3,a0
   104bc:	02050793          	add	a5,a0,32 # ffffffffff000020 <__global_pointer$+0xfffffffffefed7d8>
   104c0:	19f578d3          	fdiv.s	fa7,fa0,ft11
   104c4:	18857553          	fdiv.s	fa0,fa0,fs0
   104c8:	0007d00b          	lsd	ft0,0(a5)
   104cc:	0087d10b          	lsd	ft2,8(a5)
   104d0:	0107d20b          	lsd	ft4,16(a5)
   104d4:	0187d30b          	lsd	ft6,24(a5)
   104d8:	0005a687          	flw	fa3,0(a1)
   104dc:	0045a607          	flw	fa2,4(a1)
   104e0:	0085a587          	flw	fa1,8(a1)
   104e4:	08d077d3          	fsub.s	fa5,ft0,fa3
   104e8:	08d1f1d3          	fsub.s	ft3,ft3,fa3
   104ec:	08c0f0d3          	fsub.s	ft1,ft1,fa2
   104f0:	08c27253          	fsub.s	ft4,ft4,fa2
   104f4:	08b17053          	fsub.s	ft0,ft2,fa1
   104f8:	1107f7d3          	fmul.s	fa5,fa5,fa6
   104fc:	1101fe53          	fmul.s	ft8,ft3,fa6
   10500:	1110f0d3          	fmul.s	ft1,ft1,fa7
   10504:	11127253          	fmul.s	ft4,ft4,fa7
   10508:	08b2f1d3          	fsub.s	ft3,ft5,fa1
   1050c:	10a07053          	fmul.s	ft0,ft0,fa0
   10510:	29c78153          	fmin.s	ft2,fa5,ft8
   10514:	29c797d3          	fmax.s	fa5,fa5,ft8
   10518:	284082d3          	fmin.s	ft5,ft1,ft4
   1051c:	284090d3          	fmax.s	ft1,ft1,ft4
   10520:	10a1f1d3          	fmul.s	ft3,ft3,fa0
   10524:	01c5a707          	flw	fa4,28(a1)
   10528:	28511153          	fmax.s	ft2,ft2,ft5
   1052c:	281787d3          	fmin.s	fa5,fa5,ft1
   10530:	00c5ae87          	flw	ft9,12(a1)
   10534:	28e787d3          	fmin.s	fa5,fa5,fa4
   10538:	29d110d3          	fmax.s	ft1,ft2,ft9
   1053c:	28300153          	fmin.s	ft2,ft0,ft3
   10540:	28301053          	fmax.s	ft0,ft0,ft3
   10544:	282090d3          	fmax.s	ft1,ft1,ft2
   10548:	280787d3          	fmin.s	fa5,fa5,ft0
   1054c:	20e70053          	fmv.s	ft0,fa4
   10550:	a01797d3          	flt.s	a5,fa5,ft1
   10554:	00079863          	bnez	a5,10564 <_Z17intersect_treeletRK7TreeletRKN3rtm3RayERNS2_3HitEPjRj+0xcc>
   10558:	a1d797d3          	flt.s	a5,fa5,ft9
   1055c:	00079463          	bnez	a5,10564 <_Z17intersect_treeletRK7TreeletRKN3rtm3RayERNS2_3HitEPjRj+0xcc>
   10560:	20108053          	fmv.s	ft0,ft1
   10564:	00062e07          	flw	ft8,0(a2)
   10568:	00012827          	fsw	ft0,16(sp)
   1056c:	00000513          	li	a0,0
   10570:	a00e07d3          	fle.s	a5,ft8,ft0
   10574:	4c079a63          	bnez	a5,10a48 <_Z17intersect_treeletRK7TreeletRKN3rtm3RayERNS2_3HitEPjRj+0x5b0>
   10578:	32912c27          	fsw	fs1,824(sp)
   1057c:	33212a27          	fsw	fs2,820(sp)
   10580:	04882487          	flw	fs1,72(a6)
   10584:	f0000953          	fmv.w.x	fs2,zero
   10588:	40000eb7          	lui	t4,0x40000
   1058c:	34813423          	sd	s0,840(sp)
   10590:	33312827          	fsw	fs3,816(sp)
   10594:	33412627          	fsw	fs4,812(sp)
   10598:	33512427          	fsw	fs5,808(sp)
   1059c:	33612227          	fsw	fs6,804(sp)
   105a0:	33712027          	fsw	fs7,800(sp)
   105a4:	31812e27          	fsw	fs8,796(sp)
   105a8:	00612a27          	fsw	ft6,20(sp)
   105ac:	00712c27          	fsw	ft7,24(sp)
   105b0:	00100313          	li	t1,1
   105b4:	fffe8e93          	add	t4,t4,-1 # 3fffffff <__global_pointer$+0x3ffed7b7>
   105b8:	fff3031b          	addw	t1,t1,-1
   105bc:	02031593          	sll	a1,t1,0x20
   105c0:	0205d593          	srl	a1,a1,0x20
   105c4:	00159793          	sll	a5,a1,0x1
   105c8:	00b787b3          	add	a5,a5,a1
   105cc:	00279793          	sll	a5,a5,0x2
   105d0:	31078793          	add	a5,a5,784
   105d4:	002787b3          	add	a5,a5,sp
   105d8:	d007a583          	lw	a1,-768(a5)
   105dc:	d047a883          	lw	a7,-764(a5)
   105e0:	d087a803          	lw	a6,-760(a5)
   105e4:	f00587d3          	fmv.w.x	fa5,a1
   105e8:	00b12023          	sw	a1,0(sp)
   105ec:	01112223          	sw	a7,4(sp)
   105f0:	a0fe07d3          	fle.s	a5,ft8,fa5
   105f4:	01012423          	sw	a6,8(sp)
   105f8:	00078863          	beqz	a5,10608 <_Z17intersect_treeletRK7TreeletRKN3rtm3RayERNS2_3HitEPjRj+0x170>
   105fc:	42030463          	beqz	t1,10a24 <_Z17intersect_treeletRK7TreeletRKN3rtm3RayERNS2_3HitEPjRj+0x58c>
   10600:	00062e07          	flw	ft8,0(a2)
   10604:	fb5ff06f          	j	105b8 <_Z17intersect_treeletRK7TreeletRKN3rtm3RayERNS2_3HitEPjRj+0x120>
   10608:	0008879b          	sext.w	a5,a7
   1060c:	0017f793          	and	a5,a5,1
   10610:	0a078a63          	beqz	a5,106c4 <_Z17intersect_treeletRK7TreeletRKN3rtm3RayERNS2_3HitEPjRj+0x22c>
   10614:	2a00006f          	j	108b4 <_Z17intersect_treeletRK7TreeletRKN3rtm3RayERNS2_3HitEPjRj+0x41c>
   10618:	00072883          	lw	a7,0(a4)
   1061c:	20e70353          	fmv.s	ft6,fa4
   10620:	20e703d3          	fmv.s	ft7,fa4
   10624:	02089413          	sll	s0,a7,0x20
   10628:	0018879b          	addw	a5,a7,1
   1062c:	01e45893          	srl	a7,s0,0x1e
   10630:	00f72023          	sw	a5,0(a4)
   10634:	011688b3          	add	a7,a3,a7
   10638:	01e8a023          	sw	t5,0(a7)
   1063c:	00812883          	lw	a7,8(sp)
   10640:	0028f893          	and	a7,a7,2
   10644:	18088e63          	beqz	a7,107e0 <_Z17intersect_treeletRK7TreeletRKN3rtm3RayERNS2_3HitEPjRj+0x348>
   10648:	00072883          	lw	a7,0(a4)
   1064c:	002fd793          	srl	a5,t6,0x2
   10650:	01d7f7b3          	and	a5,a5,t4
   10654:	02089f93          	sll	t6,a7,0x20
   10658:	00188f1b          	addw	t5,a7,1
   1065c:	01efd893          	srl	a7,t6,0x1e
   10660:	01e72023          	sw	t5,0(a4)
   10664:	011688b3          	add	a7,a3,a7
   10668:	00f8a023          	sw	a5,0(a7)
   1066c:	a06397d3          	flt.s	a5,ft7,ft6
   10670:	1e078663          	beqz	a5,1085c <_Z17intersect_treeletRK7TreeletRKN3rtm3RayERNS2_3HitEPjRj+0x3c4>
   10674:	a1c317d3          	flt.s	a5,ft6,ft8
   10678:	3e078463          	beqz	a5,10a60 <_Z17intersect_treeletRK7TreeletRKN3rtm3RayERNS2_3HitEPjRj+0x5c8>
   1067c:	02031893          	sll	a7,t1,0x20
   10680:	0208d893          	srl	a7,a7,0x20
   10684:	00189793          	sll	a5,a7,0x1
   10688:	011787b3          	add	a5,a5,a7
   1068c:	00279793          	sll	a5,a5,0x2
   10690:	31078893          	add	a7,a5,784
   10694:	002888b3          	add	a7,a7,sp
   10698:	d068a027          	fsw	ft6,-768(a7)
   1069c:	00478793          	add	a5,a5,4
   106a0:	01010893          	add	a7,sp,16
   106a4:	00f887b3          	add	a5,a7,a5
   106a8:	0057a023          	sw	t0,0(a5)
   106ac:	0077a223          	sw	t2,4(a5)
   106b0:	0013031b          	addw	t1,t1,1
   106b4:	00b12223          	sw	a1,4(sp)
   106b8:	01012423          	sw	a6,8(sp)
   106bc:	0015f593          	and	a1,a1,1
   106c0:	1e059a63          	bnez	a1,108b4 <_Z17intersect_treeletRK7TreeletRKN3rtm3RayERNS2_3HitEPjRj+0x41c>
   106c4:	00013583          	ld	a1,0(sp)
   106c8:	0225d793          	srl	a5,a1,0x22
   106cc:	00178793          	add	a5,a5,1
   106d0:	00579793          	sll	a5,a5,0x5
   106d4:	0225df13          	srl	t5,a1,0x22
   106d8:	00fe07b3          	add	a5,t3,a5
   106dc:	0007d00b          	lsd	ft0,0(a5)
   106e0:	0087d10b          	lsd	ft2,8(a5)
   106e4:	0107d20b          	lsd	ft4,16(a5)
   106e8:	0187d30b          	lsd	ft6,24(a5)
   106ec:	00813f83          	ld	t6,8(sp)
   106f0:	e00305d3          	fmv.x.w	a1,ft6
   106f4:	e0038853          	fmv.x.w	a6,ft7
   106f8:	002fd793          	srl	a5,t6,0x2
   106fc:	01d7f7b3          	and	a5,a5,t4
   10700:	02079893          	sll	a7,a5,0x20
   10704:	01b8d793          	srl	a5,a7,0x1b
   10708:	02078793          	add	a5,a5,32
   1070c:	200007d3          	fmv.s	fa5,ft0
   10710:	20108a53          	fmv.s	fs4,ft1
   10714:	202109d3          	fmv.s	fs3,ft2
   10718:	20318bd3          	fmv.s	fs7,ft3
   1071c:	20420b53          	fmv.s	fs6,ft4
   10720:	20528ad3          	fmv.s	fs5,ft5
   10724:	0005859b          	sext.w	a1,a1
   10728:	0008081b          	sext.w	a6,a6
   1072c:	00fe07b3          	add	a5,t3,a5
   10730:	0007d00b          	lsd	ft0,0(a5)
   10734:	0087d10b          	lsd	ft2,8(a5)
   10738:	0107d20b          	lsd	ft4,16(a5)
   1073c:	0187d30b          	lsd	ft6,24(a5)
   10740:	00412883          	lw	a7,4(sp)
   10744:	e00307d3          	fmv.x.w	a5,ft6
   10748:	e00383d3          	fmv.x.w	t2,ft7
   1074c:	0028f893          	and	a7,a7,2
   10750:	0007829b          	sext.w	t0,a5
   10754:	0003839b          	sext.w	t2,t2
   10758:	ec0890e3          	bnez	a7,10618 <_Z17intersect_treeletRK7TreeletRKN3rtm3RayERNS2_3HitEPjRj+0x180>
   1075c:	08d7f7d3          	fsub.s	fa5,fa5,fa3
   10760:	08ca7a53          	fsub.s	fs4,fs4,fa2
   10764:	08dbfbd3          	fsub.s	fs7,fs7,fa3
   10768:	08cb7b53          	fsub.s	fs6,fs6,fa2
   1076c:	08b9f9d3          	fsub.s	fs3,fs3,fa1
   10770:	1107f7d3          	fmul.s	fa5,fa5,fa6
   10774:	111a7a53          	fmul.s	fs4,fs4,fa7
   10778:	110bfbd3          	fmul.s	fs7,fs7,fa6
   1077c:	111b7b53          	fmul.s	fs6,fs6,fa7
   10780:	08bafad3          	fsub.s	fs5,fs5,fa1
   10784:	10a9f9d3          	fmul.s	fs3,fs3,fa0
   10788:	20e70353          	fmv.s	ft6,fa4
   1078c:	297783d3          	fmin.s	ft7,fa5,fs7
   10790:	296a0c53          	fmin.s	fs8,fs4,fs6
   10794:	297797d3          	fmax.s	fa5,fa5,fs7
   10798:	296a1a53          	fmax.s	fs4,fs4,fs6
   1079c:	10aafad3          	fmul.s	fs5,fs5,fa0
   107a0:	298393d3          	fmax.s	ft7,ft7,fs8
   107a4:	294787d3          	fmin.s	fa5,fa5,fs4
   107a8:	29d393d3          	fmax.s	ft7,ft7,ft9
   107ac:	29598a53          	fmin.s	fs4,fs3,fs5
   107b0:	28e787d3          	fmin.s	fa5,fa5,fa4
   107b4:	295999d3          	fmax.s	fs3,fs3,fs5
   107b8:	294393d3          	fmax.s	ft7,ft7,fs4
   107bc:	293787d3          	fmin.s	fa5,fa5,fs3
   107c0:	a07797d3          	flt.s	a5,fa5,ft7
   107c4:	00079663          	bnez	a5,107d0 <_Z17intersect_treeletRK7TreeletRKN3rtm3RayERNS2_3HitEPjRj+0x338>
   107c8:	a1d797d3          	flt.s	a5,fa5,ft9
   107cc:	e60788e3          	beqz	a5,1063c <_Z17intersect_treeletRK7TreeletRKN3rtm3RayERNS2_3HitEPjRj+0x1a4>
   107d0:	00812883          	lw	a7,8(sp)
   107d4:	20e703d3          	fmv.s	ft7,fa4
   107d8:	0028f893          	and	a7,a7,2
   107dc:	e60896e3          	bnez	a7,10648 <_Z17intersect_treeletRK7TreeletRKN3rtm3RayERNS2_3HitEPjRj+0x1b0>
   107e0:	08d07053          	fsub.s	ft0,ft0,fa3
   107e4:	08c0f0d3          	fsub.s	ft1,ft1,fa2
   107e8:	08d1f1d3          	fsub.s	ft3,ft3,fa3
   107ec:	08c27253          	fsub.s	ft4,ft4,fa2
   107f0:	08b17153          	fsub.s	ft2,ft2,fa1
   107f4:	08b2f2d3          	fsub.s	ft5,ft5,fa1
   107f8:	11007053          	fmul.s	ft0,ft0,fa6
   107fc:	1101f1d3          	fmul.s	ft3,ft3,fa6
   10800:	1110f0d3          	fmul.s	ft1,ft1,fa7
   10804:	11127253          	fmul.s	ft4,ft4,fa7
   10808:	10a17153          	fmul.s	ft2,ft2,fa0
   1080c:	10a2f2d3          	fmul.s	ft5,ft5,fa0
   10810:	283007d3          	fmin.s	fa5,ft0,ft3
   10814:	28301053          	fmax.s	ft0,ft0,ft3
   10818:	284089d3          	fmin.s	fs3,ft1,ft4
   1081c:	284090d3          	fmax.s	ft1,ft1,ft4
   10820:	285111d3          	fmax.s	ft3,ft2,ft5
   10824:	293797d3          	fmax.s	fa5,fa5,fs3
   10828:	28100053          	fmin.s	ft0,ft0,ft1
   1082c:	28510153          	fmin.s	ft2,ft2,ft5
   10830:	29d797d3          	fmax.s	fa5,fa5,ft9
   10834:	28300053          	fmin.s	ft0,ft0,ft3
   10838:	282797d3          	fmax.s	fa5,fa5,ft2
   1083c:	28e00053          	fmin.s	ft0,ft0,fa4
   10840:	a0f017d3          	flt.s	a5,ft0,fa5
   10844:	e20794e3          	bnez	a5,1066c <_Z17intersect_treeletRK7TreeletRKN3rtm3RayERNS2_3HitEPjRj+0x1d4>
   10848:	a1d017d3          	flt.s	a5,ft0,ft9
   1084c:	e20790e3          	bnez	a5,1066c <_Z17intersect_treeletRK7TreeletRKN3rtm3RayERNS2_3HitEPjRj+0x1d4>
   10850:	20f78353          	fmv.s	ft6,fa5
   10854:	a06397d3          	flt.s	a5,ft7,ft6
   10858:	e0079ee3          	bnez	a5,10674 <_Z17intersect_treeletRK7TreeletRKN3rtm3RayERNS2_3HitEPjRj+0x1dc>
   1085c:	a1c397d3          	flt.s	a5,ft7,ft8
   10860:	1e078a63          	beqz	a5,10a54 <_Z17intersect_treeletRK7TreeletRKN3rtm3RayERNS2_3HitEPjRj+0x5bc>
   10864:	02031893          	sll	a7,t1,0x20
   10868:	0208d893          	srl	a7,a7,0x20
   1086c:	00189793          	sll	a5,a7,0x1
   10870:	011787b3          	add	a5,a5,a7
   10874:	00279793          	sll	a5,a5,0x2
   10878:	31078893          	add	a7,a5,784
   1087c:	002888b3          	add	a7,a7,sp
   10880:	d078a027          	fsw	ft7,-768(a7)
   10884:	00478793          	add	a5,a5,4
   10888:	01010893          	add	a7,sp,16
   1088c:	00f887b3          	add	a5,a7,a5
   10890:	00b7a023          	sw	a1,0(a5)
   10894:	0107a223          	sw	a6,4(a5)
   10898:	0013031b          	addw	t1,t1,1
   1089c:	00028593          	mv	a1,t0
   108a0:	00038813          	mv	a6,t2
   108a4:	00b12223          	sw	a1,4(sp)
   108a8:	01012423          	sw	a6,8(sp)
   108ac:	0015f593          	and	a1,a1,1
   108b0:	e0058ae3          	beqz	a1,106c4 <_Z17intersect_treeletRK7TreeletRKN3rtm3RayERNS2_3HitEPjRj+0x22c>
   108b4:	00013783          	ld	a5,0(sp)
   108b8:	0217d593          	srl	a1,a5,0x21
   108bc:	0075f593          	and	a1,a1,7
   108c0:	0247d793          	srl	a5,a5,0x24
   108c4:	00158593          	add	a1,a1,1
   108c8:	03079793          	sll	a5,a5,0x30
   108cc:	0307d793          	srl	a5,a5,0x30
   108d0:	00259813          	sll	a6,a1,0x2
   108d4:	00279793          	sll	a5,a5,0x2
   108d8:	00b80833          	add	a6,a6,a1
   108dc:	00fe07b3          	add	a5,t3,a5
   108e0:	00381813          	sll	a6,a6,0x3
   108e4:	00f80833          	add	a6,a6,a5
   108e8:	0187a787          	flw	fa5,24(a5)
   108ec:	0207ae07          	flw	ft8,32(a5)
   108f0:	0147a307          	flw	ft6,20(a5)
   108f4:	0007a107          	flw	ft2,0(a5)
   108f8:	01c7a987          	flw	fs3,28(a5)
   108fc:	09c37353          	fsub.s	ft6,ft6,ft8
   10900:	08f17153          	fsub.s	ft2,ft2,fa5
   10904:	00c7a287          	flw	ft5,12(a5)
   10908:	0107a207          	flw	ft4,16(a5)
   1090c:	0087a187          	flw	ft3,8(a5)
   10910:	08f2f2d3          	fsub.s	ft5,ft5,fa5
   10914:	09327253          	fsub.s	ft4,ft4,fs3
   10918:	09c1f1d3          	fsub.s	ft3,ft3,ft8
   1091c:	10237a53          	fmul.s	fs4,ft6,ft2
   10920:	0047a007          	flw	ft0,4(a5)
   10924:	103273d3          	fmul.s	ft7,ft4,ft3
   10928:	09307053          	fsub.s	ft0,ft0,fs3
   1092c:	a032fa47          	fmsub.s	fs4,ft5,ft3,fs4
   10930:	380373c7          	fmsub.s	ft7,ft6,ft0,ft7
   10934:	1002f0d3          	fmul.s	ft1,ft5,ft0
   10938:	114a7a53          	fmul.s	fs4,fs4,fs4
   1093c:	082270c7          	fmsub.s	ft1,ft4,ft2,ft1
   10940:	a073f3c3          	fmadd.s	ft7,ft7,ft7,fs4
   10944:	3810f0c3          	fmadd.s	ft1,ft1,ft1,ft7
   10948:	5800f0d3          	fsqrt.s	ft1,ft1
   1094c:	11e37ad3          	fmul.s	fs5,ft6,ft10
   10950:	10827a53          	fmul.s	fs4,ft4,fs0
   10954:	08f6fbd3          	fsub.s	fs7,fa3,fa5
   10958:	11f2f0d3          	fmul.s	ft1,ft5,ft11
   1095c:	093679d3          	fsub.s	fs3,fa2,fs3
   10960:	a882fac7          	fmsub.s	fs5,ft5,fs0,fs5
   10964:	a1f37a47          	fmsub.s	fs4,ft6,ft11,fs4
   10968:	09c5fb53          	fsub.s	fs6,fa1,ft8
   1096c:	09e270c7          	fmsub.s	ft1,ft4,ft10,ft1
   10970:	1171fc53          	fmul.s	fs8,ft3,fs7
   10974:	115077d3          	fmul.s	fa5,ft0,fs5
   10978:	113173d3          	fmul.s	ft7,ft2,fs3
   1097c:	11607e53          	fmul.s	ft8,ft0,fs6
   10980:	113afad3          	fmul.s	fs5,fs5,fs3
   10984:	794177c3          	fmadd.s	fa5,ft2,fs4,fa5
   10988:	c1617147          	fmsub.s	ft2,ft2,fs6,fs8
   1098c:	397073c7          	fmsub.s	ft7,ft0,fs7,ft7
   10990:	a97a7a43          	fmadd.s	fs4,fs4,fs7,fs5
   10994:	7811f7c3          	fmadd.s	fa5,ft3,ft1,fa5
   10998:	102ff053          	fmul.s	ft0,ft11,ft2
   1099c:	e131f1c7          	fmsub.s	ft3,ft3,fs3,ft8
   109a0:	a160f0c3          	fmadd.s	ft1,ft1,fs6,fs4
   109a4:	18f4f7d3          	fdiv.s	fa5,fs1,fa5
   109a8:	003f7043          	fmadd.s	ft0,ft10,ft3,ft0
   109ac:	00747043          	fmadd.s	ft0,fs0,ft7,ft0
   109b0:	1017f0d3          	fmul.s	ft1,fa5,ft1
   109b4:	1007f053          	fmul.s	ft0,fa5,ft0
   109b8:	a12095d3          	flt.s	a1,ft1,fs2
   109bc:	a01498d3          	flt.s	a7,fs1,ft1
   109c0:	a1201f53          	flt.s	t5,ft0,fs2
   109c4:	04059a63          	bnez	a1,10a18 <_Z17intersect_treeletRK7TreeletRKN3rtm3RayERNS2_3HitEPjRj+0x580>
   109c8:	0000fe53          	fadd.s	ft8,ft1,ft0
   109cc:	04089663          	bnez	a7,10a18 <_Z17intersect_treeletRK7TreeletRKN3rtm3RayERNS2_3HitEPjRj+0x580>
   109d0:	10227253          	fmul.s	ft4,ft4,ft2
   109d4:	040f1263          	bnez	t5,10a18 <_Z17intersect_treeletRK7TreeletRKN3rtm3RayERNS2_3HitEPjRj+0x580>
   109d8:	a1c495d3          	flt.s	a1,fs1,ft8
   109dc:	2032f2c3          	fmadd.s	ft5,ft5,ft3,ft4
   109e0:	02059c63          	bnez	a1,10a18 <_Z17intersect_treeletRK7TreeletRKN3rtm3RayERNS2_3HitEPjRj+0x580>
   109e4:	28737343          	fmadd.s	ft6,ft6,ft7,ft5
   109e8:	1067f7d3          	fmul.s	fa5,fa5,ft6
   109ec:	a1d795d3          	flt.s	a1,fa5,ft9
   109f0:	02059463          	bnez	a1,10a18 <_Z17intersect_treeletRK7TreeletRKN3rtm3RayERNS2_3HitEPjRj+0x580>
   109f4:	00062107          	flw	ft2,0(a2)
   109f8:	a0f115d3          	flt.s	a1,ft2,fa5
   109fc:	00059e63          	bnez	a1,10a18 <_Z17intersect_treeletRK7TreeletRKN3rtm3RayERNS2_3HitEPjRj+0x580>
   10a00:	0247a583          	lw	a1,36(a5)
   10a04:	00100513          	li	a0,1
   10a08:	00162227          	fsw	ft1,4(a2)
   10a0c:	00062427          	fsw	ft0,8(a2)
   10a10:	00f62027          	fsw	fa5,0(a2)
   10a14:	00b62623          	sw	a1,12(a2)
   10a18:	02878793          	add	a5,a5,40
   10a1c:	ecf816e3          	bne	a6,a5,108e8 <_Z17intersect_treeletRK7TreeletRKN3rtm3RayERNS2_3HitEPjRj+0x450>
   10a20:	be0310e3          	bnez	t1,10600 <_Z17intersect_treeletRK7TreeletRKN3rtm3RayERNS2_3HitEPjRj+0x168>
   10a24:	34813403          	ld	s0,840(sp)
   10a28:	33812487          	flw	fs1,824(sp)
   10a2c:	33412907          	flw	fs2,820(sp)
   10a30:	33012987          	flw	fs3,816(sp)
   10a34:	32c12a07          	flw	fs4,812(sp)
   10a38:	32812a87          	flw	fs5,808(sp)
   10a3c:	32412b07          	flw	fs6,804(sp)
   10a40:	32012b87          	flw	fs7,800(sp)
   10a44:	31c12c07          	flw	fs8,796(sp)
   10a48:	33c12407          	flw	fs0,828(sp)
   10a4c:	35010113          	add	sp,sp,848
   10a50:	00008067          	ret
   10a54:	a1c317d3          	flt.s	a5,ft6,ft8
   10a58:	e40792e3          	bnez	a5,1089c <_Z17intersect_treeletRK7TreeletRKN3rtm3RayERNS2_3HitEPjRj+0x404>
   10a5c:	ba1ff06f          	j	105fc <_Z17intersect_treeletRK7TreeletRKN3rtm3RayERNS2_3HitEPjRj+0x164>
   10a60:	a1c397d3          	flt.s	a5,ft7,ft8
   10a64:	c40798e3          	bnez	a5,106b4 <_Z17intersect_treeletRK7TreeletRKN3rtm3RayERNS2_3HitEPjRj+0x21c>
   10a68:	b95ff06f          	j	105fc <_Z17intersect_treeletRK7TreeletRKN3rtm3RayERNS2_3HitEPjRj+0x164>

0000000000010a6c <_Z17intersect_bucketsPK7TreeletPN3rtm3HitE>:
   10a6c:	f1010113          	add	sp,sp,-240
   10a70:	0c913c23          	sd	s1,216(sp)
   10a74:	fff00493          	li	s1,-1
   10a78:	0d213823          	sd	s2,208(sp)
   10a7c:	0d313423          	sd	s3,200(sp)
   10a80:	0d413023          	sd	s4,192(sp)
   10a84:	0e113423          	sd	ra,232(sp)
   10a88:	0e813023          	sd	s0,224(sp)
   10a8c:	0b513c23          	sd	s5,184(sp)
   10a90:	0a812627          	fsw	fs0,172(sp)
   10a94:	0a912427          	fsw	fs1,168(sp)
   10a98:	0b212227          	fsw	fs2,164(sp)
   10a9c:	0b312027          	fsw	fs3,160(sp)
   10aa0:	09412e27          	fsw	fs4,156(sp)
   10aa4:	09512c27          	fsw	fs5,152(sp)
   10aa8:	09612a27          	fsw	fs6,148(sp)
   10aac:	09712827          	fsw	fs7,144(sp)
   10ab0:	09812627          	fsw	fs8,140(sp)
   10ab4:	09912427          	fsw	fs9,136(sp)
   10ab8:	09a12227          	fsw	fs10,132(sp)
   10abc:	00050913          	mv	s2,a0
   10ac0:	00058a13          	mv	s4,a1
   10ac4:	0204d993          	srl	s3,s1,0x20
   10ac8:	0000100b          	lwi	ft0,0(zero) # 0 <main-0x100b0>
   10acc:	e00487d3          	fmv.x.w	a5,fs1
   10ad0:	e0040453          	fmv.x.w	s0,fs0
   10ad4:	00012c27          	fsw	ft0,24(sp)
   10ad8:	02079693          	sll	a3,a5,0x20
   10adc:	0089f733          	and	a4,s3,s0
   10ae0:	00d76733          	or	a4,a4,a3
   10ae4:	02041a93          	sll	s5,s0,0x20
   10ae8:	0007869b          	sext.w	a3,a5
   10aec:	00112e27          	fsw	ft1,28(sp)
   10af0:	02079793          	sll	a5,a5,0x20
   10af4:	02212027          	fsw	ft2,32(sp)
   10af8:	02312227          	fsw	ft3,36(sp)
   10afc:	02412427          	fsw	ft4,40(sp)
   10b00:	02512627          	fsw	ft5,44(sp)
   10b04:	02612827          	fsw	ft6,48(sp)
   10b08:	02712a27          	fsw	ft7,52(sp)
   10b0c:	02e13c23          	sd	a4,56(sp)
   10b10:	20000d53          	fmv.s	fs10,ft0
   10b14:	20108cd3          	fmv.s	fs9,ft1
   10b18:	20210c53          	fmv.s	fs8,ft2
   10b1c:	20318bd3          	fmv.s	fs7,ft3
   10b20:	20420b53          	fmv.s	fs6,ft4
   10b24:	20528ad3          	fmv.s	fs5,ft5
   10b28:	20630a53          	fmv.s	fs4,ft6
   10b2c:	207389d3          	fmv.s	fs3,ft7
   10b30:	020ada93          	srl	s5,s5,0x20
   10b34:	0207d793          	srl	a5,a5,0x20
   10b38:	36968e63          	beq	a3,s1,10eb4 <_Z17intersect_bucketsPK7TreeletPN3rtm3HitE+0x448>
   10b3c:	00379513          	sll	a0,a5,0x3
   10b40:	40f50533          	sub	a0,a0,a5
   10b44:	00d51513          	sll	a0,a0,0xd
   10b48:	00410713          	add	a4,sp,4
   10b4c:	04010693          	add	a3,sp,64
   10b50:	00810613          	add	a2,sp,8
   10b54:	01810593          	add	a1,sp,24
   10b58:	00a90533          	add	a0,s2,a0
   10b5c:	00712427          	fsw	ft7,8(sp)
   10b60:	00012223          	sw	zero,4(sp)
   10b64:	00000097          	auipc	ra,0x0
   10b68:	934080e7          	jalr	-1740(ra) # 10498 <_Z17intersect_treeletRK7TreeletRKN3rtm3RayERNS2_3HitEPjRj>
   10b6c:	02050463          	beqz	a0,10b94 <_Z17intersect_bucketsPK7TreeletPN3rtm3HitE+0x128>
   10b70:	00812987          	flw	fs3,8(sp)
   10b74:	004a9a93          	sll	s5,s5,0x4
   10b78:	015a0ab3          	add	s5,s4,s5
   10b7c:	213987d3          	fmv.s	fa5,fs3
   10b80:	00c12807          	flw	fa6,12(sp)
   10b84:	01012887          	flw	fa7,16(sp)
   10b88:	01412907          	flw	fs2,20(sp)
   10b8c:	00fab00b          	cshit	fa5,0(s5)
   10b90:	03312a27          	fsw	fs3,52(sp)
   10b94:	00412783          	lw	a5,4(sp)
   10b98:	f20788e3          	beqz	a5,10ac8 <_Z17intersect_bucketsPK7TreeletPN3rtm3HitE+0x5c>
   10b9c:	fff7871b          	addw	a4,a5,-1
   10ba0:	02071613          	sll	a2,a4,0x20
   10ba4:	01e65693          	srl	a3,a2,0x1e
   10ba8:	08068693          	add	a3,a3,128
   10bac:	002686b3          	add	a3,a3,sp
   10bb0:	fc06a683          	lw	a3,-64(a3)
   10bb4:	21ad0053          	fmv.s	ft0,fs10
   10bb8:	219c80d3          	fmv.s	ft1,fs9
   10bbc:	218c0153          	fmv.s	ft2,fs8
   10bc0:	217b81d3          	fmv.s	ft3,fs7
   10bc4:	216b0253          	fmv.s	ft4,fs6
   10bc8:	215a82d3          	fmv.s	ft5,fs5
   10bcc:	214a0353          	fmv.s	ft6,fs4
   10bd0:	213983d3          	fmv.s	ft7,fs3
   10bd4:	f0040453          	fmv.w.x	fs0,s0
   10bd8:	f00684d3          	fmv.w.x	fs1,a3
   10bdc:	0007061b          	sext.w	a2,a4
   10be0:	00e12223          	sw	a4,4(sp)
   10be4:	02d12e23          	sw	a3,60(sp)
   10be8:	1000200b          	swi	ft0,256(zero) # 100 <main-0xffb0>
   10bec:	ec060ee3          	beqz	a2,10ac8 <_Z17intersect_bucketsPK7TreeletPN3rtm3HitE+0x5c>
   10bf0:	ffe7871b          	addw	a4,a5,-2
   10bf4:	02071613          	sll	a2,a4,0x20
   10bf8:	01e65693          	srl	a3,a2,0x1e
   10bfc:	08068693          	add	a3,a3,128
   10c00:	002686b3          	add	a3,a3,sp
   10c04:	fc06a683          	lw	a3,-64(a3)
   10c08:	0007061b          	sext.w	a2,a4
   10c0c:	00e12223          	sw	a4,4(sp)
   10c10:	f00684d3          	fmv.w.x	fs1,a3
   10c14:	02d12e23          	sw	a3,60(sp)
   10c18:	1000200b          	swi	ft0,256(zero) # 100 <main-0xffb0>
   10c1c:	ea0606e3          	beqz	a2,10ac8 <_Z17intersect_bucketsPK7TreeletPN3rtm3HitE+0x5c>
   10c20:	ffd7871b          	addw	a4,a5,-3
   10c24:	02071613          	sll	a2,a4,0x20
   10c28:	01e65693          	srl	a3,a2,0x1e
   10c2c:	08068693          	add	a3,a3,128
   10c30:	002686b3          	add	a3,a3,sp
   10c34:	fc06a683          	lw	a3,-64(a3)
   10c38:	0007061b          	sext.w	a2,a4
   10c3c:	00e12223          	sw	a4,4(sp)
   10c40:	f00684d3          	fmv.w.x	fs1,a3
   10c44:	02d12e23          	sw	a3,60(sp)
   10c48:	1000200b          	swi	ft0,256(zero) # 100 <main-0xffb0>
   10c4c:	e6060ee3          	beqz	a2,10ac8 <_Z17intersect_bucketsPK7TreeletPN3rtm3HitE+0x5c>
   10c50:	ffc7871b          	addw	a4,a5,-4
   10c54:	02071613          	sll	a2,a4,0x20
   10c58:	01e65693          	srl	a3,a2,0x1e
   10c5c:	08068693          	add	a3,a3,128
   10c60:	002686b3          	add	a3,a3,sp
   10c64:	fc06a683          	lw	a3,-64(a3)
   10c68:	0007061b          	sext.w	a2,a4
   10c6c:	00e12223          	sw	a4,4(sp)
   10c70:	f00684d3          	fmv.w.x	fs1,a3
   10c74:	02d12e23          	sw	a3,60(sp)
   10c78:	1000200b          	swi	ft0,256(zero) # 100 <main-0xffb0>
   10c7c:	e40606e3          	beqz	a2,10ac8 <_Z17intersect_bucketsPK7TreeletPN3rtm3HitE+0x5c>
   10c80:	ffb7871b          	addw	a4,a5,-5
   10c84:	02071613          	sll	a2,a4,0x20
   10c88:	01e65693          	srl	a3,a2,0x1e
   10c8c:	08068693          	add	a3,a3,128
   10c90:	002686b3          	add	a3,a3,sp
   10c94:	fc06a683          	lw	a3,-64(a3)
   10c98:	0007061b          	sext.w	a2,a4
   10c9c:	00e12223          	sw	a4,4(sp)
   10ca0:	f00684d3          	fmv.w.x	fs1,a3
   10ca4:	02d12e23          	sw	a3,60(sp)
   10ca8:	1000200b          	swi	ft0,256(zero) # 100 <main-0xffb0>
   10cac:	e0060ee3          	beqz	a2,10ac8 <_Z17intersect_bucketsPK7TreeletPN3rtm3HitE+0x5c>
   10cb0:	ffa7871b          	addw	a4,a5,-6
   10cb4:	02071613          	sll	a2,a4,0x20
   10cb8:	01e65693          	srl	a3,a2,0x1e
   10cbc:	08068693          	add	a3,a3,128
   10cc0:	002686b3          	add	a3,a3,sp
   10cc4:	fc06a683          	lw	a3,-64(a3)
   10cc8:	0007061b          	sext.w	a2,a4
   10ccc:	00e12223          	sw	a4,4(sp)
   10cd0:	f00684d3          	fmv.w.x	fs1,a3
   10cd4:	02d12e23          	sw	a3,60(sp)
   10cd8:	1000200b          	swi	ft0,256(zero) # 100 <main-0xffb0>
   10cdc:	de0606e3          	beqz	a2,10ac8 <_Z17intersect_bucketsPK7TreeletPN3rtm3HitE+0x5c>
   10ce0:	ff97871b          	addw	a4,a5,-7
   10ce4:	02071613          	sll	a2,a4,0x20
   10ce8:	01e65693          	srl	a3,a2,0x1e
   10cec:	08068693          	add	a3,a3,128
   10cf0:	002686b3          	add	a3,a3,sp
   10cf4:	fc06a683          	lw	a3,-64(a3)
   10cf8:	0007061b          	sext.w	a2,a4
   10cfc:	00e12223          	sw	a4,4(sp)
   10d00:	f00684d3          	fmv.w.x	fs1,a3
   10d04:	02d12e23          	sw	a3,60(sp)
   10d08:	1000200b          	swi	ft0,256(zero) # 100 <main-0xffb0>
   10d0c:	da060ee3          	beqz	a2,10ac8 <_Z17intersect_bucketsPK7TreeletPN3rtm3HitE+0x5c>
   10d10:	ff87871b          	addw	a4,a5,-8
   10d14:	02071613          	sll	a2,a4,0x20
   10d18:	01e65693          	srl	a3,a2,0x1e
   10d1c:	08068693          	add	a3,a3,128
   10d20:	002686b3          	add	a3,a3,sp
   10d24:	fc06a683          	lw	a3,-64(a3)
   10d28:	0007061b          	sext.w	a2,a4
   10d2c:	00e12223          	sw	a4,4(sp)
   10d30:	f00684d3          	fmv.w.x	fs1,a3
   10d34:	02d12e23          	sw	a3,60(sp)
   10d38:	1000200b          	swi	ft0,256(zero) # 100 <main-0xffb0>
   10d3c:	d80606e3          	beqz	a2,10ac8 <_Z17intersect_bucketsPK7TreeletPN3rtm3HitE+0x5c>
   10d40:	ff77871b          	addw	a4,a5,-9
   10d44:	02071613          	sll	a2,a4,0x20
   10d48:	01e65693          	srl	a3,a2,0x1e
   10d4c:	08068693          	add	a3,a3,128
   10d50:	002686b3          	add	a3,a3,sp
   10d54:	fc06a683          	lw	a3,-64(a3)
   10d58:	0007061b          	sext.w	a2,a4
   10d5c:	00e12223          	sw	a4,4(sp)
   10d60:	f00684d3          	fmv.w.x	fs1,a3
   10d64:	02d12e23          	sw	a3,60(sp)
   10d68:	1000200b          	swi	ft0,256(zero) # 100 <main-0xffb0>
   10d6c:	d4060ee3          	beqz	a2,10ac8 <_Z17intersect_bucketsPK7TreeletPN3rtm3HitE+0x5c>
   10d70:	ff67871b          	addw	a4,a5,-10
   10d74:	02071613          	sll	a2,a4,0x20
   10d78:	01e65693          	srl	a3,a2,0x1e
   10d7c:	08068693          	add	a3,a3,128
   10d80:	002686b3          	add	a3,a3,sp
   10d84:	fc06a683          	lw	a3,-64(a3)
   10d88:	0007061b          	sext.w	a2,a4
   10d8c:	00e12223          	sw	a4,4(sp)
   10d90:	f00684d3          	fmv.w.x	fs1,a3
   10d94:	02d12e23          	sw	a3,60(sp)
   10d98:	1000200b          	swi	ft0,256(zero) # 100 <main-0xffb0>
   10d9c:	d20606e3          	beqz	a2,10ac8 <_Z17intersect_bucketsPK7TreeletPN3rtm3HitE+0x5c>
   10da0:	ff57871b          	addw	a4,a5,-11
   10da4:	02071613          	sll	a2,a4,0x20
   10da8:	01e65693          	srl	a3,a2,0x1e
   10dac:	08068693          	add	a3,a3,128
   10db0:	002686b3          	add	a3,a3,sp
   10db4:	fc06a683          	lw	a3,-64(a3)
   10db8:	0007061b          	sext.w	a2,a4
   10dbc:	00e12223          	sw	a4,4(sp)
   10dc0:	f00684d3          	fmv.w.x	fs1,a3
   10dc4:	02d12e23          	sw	a3,60(sp)
   10dc8:	1000200b          	swi	ft0,256(zero) # 100 <main-0xffb0>
   10dcc:	ce060ee3          	beqz	a2,10ac8 <_Z17intersect_bucketsPK7TreeletPN3rtm3HitE+0x5c>
   10dd0:	ff47871b          	addw	a4,a5,-12
   10dd4:	02071613          	sll	a2,a4,0x20
   10dd8:	01e65693          	srl	a3,a2,0x1e
   10ddc:	08068693          	add	a3,a3,128
   10de0:	002686b3          	add	a3,a3,sp
   10de4:	fc06a683          	lw	a3,-64(a3)
   10de8:	0007061b          	sext.w	a2,a4
   10dec:	00e12223          	sw	a4,4(sp)
   10df0:	f00684d3          	fmv.w.x	fs1,a3
   10df4:	02d12e23          	sw	a3,60(sp)
   10df8:	1000200b          	swi	ft0,256(zero) # 100 <main-0xffb0>
   10dfc:	cc0606e3          	beqz	a2,10ac8 <_Z17intersect_bucketsPK7TreeletPN3rtm3HitE+0x5c>
   10e00:	ff37871b          	addw	a4,a5,-13
   10e04:	02071613          	sll	a2,a4,0x20
   10e08:	01e65693          	srl	a3,a2,0x1e
   10e0c:	08068693          	add	a3,a3,128
   10e10:	002686b3          	add	a3,a3,sp
   10e14:	fc06a683          	lw	a3,-64(a3)
   10e18:	0007061b          	sext.w	a2,a4
   10e1c:	00e12223          	sw	a4,4(sp)
   10e20:	f00684d3          	fmv.w.x	fs1,a3
   10e24:	02d12e23          	sw	a3,60(sp)
   10e28:	1000200b          	swi	ft0,256(zero) # 100 <main-0xffb0>
   10e2c:	c8060ee3          	beqz	a2,10ac8 <_Z17intersect_bucketsPK7TreeletPN3rtm3HitE+0x5c>
   10e30:	ff27871b          	addw	a4,a5,-14
   10e34:	02071613          	sll	a2,a4,0x20
   10e38:	01e65693          	srl	a3,a2,0x1e
   10e3c:	08068693          	add	a3,a3,128
   10e40:	002686b3          	add	a3,a3,sp
   10e44:	fc06a683          	lw	a3,-64(a3)
   10e48:	0007061b          	sext.w	a2,a4
   10e4c:	00e12223          	sw	a4,4(sp)
   10e50:	f00684d3          	fmv.w.x	fs1,a3
   10e54:	02d12e23          	sw	a3,60(sp)
   10e58:	1000200b          	swi	ft0,256(zero) # 100 <main-0xffb0>
   10e5c:	c60606e3          	beqz	a2,10ac8 <_Z17intersect_bucketsPK7TreeletPN3rtm3HitE+0x5c>
   10e60:	ff17871b          	addw	a4,a5,-15
   10e64:	02071613          	sll	a2,a4,0x20
   10e68:	01e65693          	srl	a3,a2,0x1e
   10e6c:	08068693          	add	a3,a3,128
   10e70:	002686b3          	add	a3,a3,sp
   10e74:	fc06a683          	lw	a3,-64(a3)
   10e78:	0007061b          	sext.w	a2,a4
   10e7c:	00e12223          	sw	a4,4(sp)
   10e80:	f00684d3          	fmv.w.x	fs1,a3
   10e84:	02d12e23          	sw	a3,60(sp)
   10e88:	1000200b          	swi	ft0,256(zero) # 100 <main-0xffb0>
   10e8c:	c2060ee3          	beqz	a2,10ac8 <_Z17intersect_bucketsPK7TreeletPN3rtm3HitE+0x5c>
   10e90:	ff07879b          	addw	a5,a5,-16
   10e94:	02079693          	sll	a3,a5,0x20
   10e98:	01e6d713          	srl	a4,a3,0x1e
   10e9c:	08070713          	add	a4,a4,128
   10ea0:	00270733          	add	a4,a4,sp
   10ea4:	fc072487          	flw	fs1,-64(a4)
   10ea8:	00f12223          	sw	a5,4(sp)
   10eac:	1000200b          	swi	ft0,256(zero) # 100 <main-0xffb0>
   10eb0:	c19ff06f          	j	10ac8 <_Z17intersect_bucketsPK7TreeletPN3rtm3HitE+0x5c>
   10eb4:	0e813083          	ld	ra,232(sp)
   10eb8:	0e013403          	ld	s0,224(sp)
   10ebc:	0d813483          	ld	s1,216(sp)
   10ec0:	0d013903          	ld	s2,208(sp)
   10ec4:	0c813983          	ld	s3,200(sp)
   10ec8:	0c013a03          	ld	s4,192(sp)
   10ecc:	0b813a83          	ld	s5,184(sp)
   10ed0:	0ac12407          	flw	fs0,172(sp)
   10ed4:	0a812487          	flw	fs1,168(sp)
   10ed8:	0a412907          	flw	fs2,164(sp)
   10edc:	0a012987          	flw	fs3,160(sp)
   10ee0:	09c12a07          	flw	fs4,156(sp)
   10ee4:	09812a87          	flw	fs5,152(sp)
   10ee8:	09412b07          	flw	fs6,148(sp)
   10eec:	09012b87          	flw	fs7,144(sp)
   10ef0:	08c12c07          	flw	fs8,140(sp)
   10ef4:	08812c87          	flw	fs9,136(sp)
   10ef8:	08412d07          	flw	fs10,132(sp)
   10efc:	0f010113          	add	sp,sp,240
   10f00:	00008067          	ret
