
./riscv/kernel:     file format elf64-littleriscv
./riscv/kernel
architecture: riscv:rv64, flags 0x00000112:
EXEC_P, HAS_SYMS, D_PAGED
start address 0x00000000000100b0

Program Header:
0x70000003 off    0x0000000000002347 vaddr 0x0000000000000000 paddr 0x0000000000000000 align 2**0
         filesz 0x000000000000003d memsz 0x0000000000000000 flags r--
    LOAD off    0x0000000000000000 vaddr 0x0000000000010000 paddr 0x0000000000010000 align 2**12
         filesz 0x000000000000232c memsz 0x000000000000232c flags r-x

Sections:
Idx Name          Size      VMA               LMA               File off  Algn
  0 .text         0000117c  00000000000100b0  00000000000100b0  000000b0  2**2
                  CONTENTS, ALLOC, LOAD, READONLY, CODE
  1 .eh_frame     000000ec  0000000000011230  0000000000011230  00001230  2**3
                  CONTENTS, ALLOC, LOAD, READONLY, DATA
  2 .sdata        00000010  000000000001231c  000000000001231c  0000231c  2**2
                  CONTENTS, ALLOC, LOAD, READONLY, DATA
  3 .comment      0000001b  0000000000000000  0000000000000000  0000232c  2**0
                  CONTENTS, READONLY
  4 .riscv.attributes 0000003d  0000000000000000  0000000000000000  00002347  2**0
                  CONTENTS, READONLY
SYMBOL TABLE:
00000000000100b0 l    d  .text	0000000000000000 .text
0000000000011230 l    d  .eh_frame	0000000000000000 .eh_frame
000000000001231c l    d  .sdata	0000000000000000 .sdata
0000000000000000 l    d  .comment	0000000000000000 .comment
0000000000000000 l    d  .riscv.attributes	0000000000000000 .riscv.attributes
0000000000000000 l    df *ABS*	0000000000000000 main.cpp
0000000000012b1c g       *ABS*	0000000000000000 __global_pointer$
000000000001231c g       .sdata	0000000000000000 __SDATA_BEGIN__
0000000000012330 g       .sdata	0000000000000000 __BSS_END__
000000000001232c g       .sdata	0000000000000000 __bss_start
00000000000100b0 g     F .text	0000000000000294 main
0000000000010344  w    F .text	0000000000000ee8 _Z17intersect_bucketsRK23DualStreamingKernelArgs
000000000001231c g       .sdata	0000000000000000 __DATA_BEGIN__
000000000001232c g       .sdata	0000000000000000 _edata
0000000000012330 g       .sdata	0000000000000000 _end



Disassembly of section .text:

00000000000100b0 <main>:
   100b0:	11a04783          	lbu	a5,282(zero) # 11a <main-0xff96>
   100b4:	18078463          	beqz	a5,1023c <main+0x18c>
   100b8:	fd010113          	add	sp,sp,-48
   100bc:	02113423          	sd	ra,40(sp)
   100c0:	02813023          	sd	s0,32(sp)
   100c4:	0000040b          	fchthrd	s0
   100c8:	10802683          	lw	a3,264(zero) # 108 <main-0xffa8>
   100cc:	0004041b          	sext.w	s0,s0
   100d0:	06d47463          	bgeu	s0,a3,10138 <main+0x88>
   100d4:	19003603          	ld	a2,400(zero) # 190 <main-0xff20>
   100d8:	f00007d3          	fmv.w.x	fa5,zero
   100dc:	00812e27          	fsw	fs0,28(sp)
   100e0:	00912c27          	fsw	fs1,24(sp)
   100e4:	02041713          	sll	a4,s0,0x20
   100e8:	01b75793          	srl	a5,a4,0x1b
   100ec:	00f607b3          	add	a5,a2,a5
   100f0:	01c7a387          	flw	ft7,28(a5)
   100f4:	f0040453          	fmv.w.x	fs0,s0
   100f8:	f00004d3          	fmv.w.x	fs1,zero
   100fc:	a0779753          	flt.s	a4,fa5,ft7
   10100:	02070263          	beqz	a4,10124 <main+0x74>
   10104:	0007a007          	flw	ft0,0(a5)
   10108:	0047a087          	flw	ft1,4(a5)
   1010c:	0087a107          	flw	ft2,8(a5)
   10110:	00c7a187          	flw	ft3,12(a5)
   10114:	0107a207          	flw	ft4,16(a5)
   10118:	0147a287          	flw	ft5,20(a5)
   1011c:	0187a307          	flw	ft6,24(a5)
   10120:	1000200b          	swi	ft0,256(zero) # 100 <main-0xffb0>
   10124:	0000040b          	fchthrd	s0
   10128:	0004041b          	sext.w	s0,s0
   1012c:	fad46ce3          	bltu	s0,a3,100e4 <main+0x34>
   10130:	01c12407          	flw	fs0,28(sp)
   10134:	01812487          	flw	fs1,24(sp)
   10138:	10000513          	li	a0,256
   1013c:	00000097          	auipc	ra,0x0
   10140:	208080e7          	jalr	520(ra) # 10344 <_Z17intersect_bucketsRK23DualStreamingKernelArgs>
   10144:	00012623          	sw	zero,12(sp)
   10148:	00c12683          	lw	a3,12(sp)
   1014c:	3ff00793          	li	a5,1023
   10150:	3ff00713          	li	a4,1023
   10154:	00d7ec63          	bltu	a5,a3,1016c <main+0xbc>
   10158:	00c12783          	lw	a5,12(sp)
   1015c:	0017879b          	addw	a5,a5,1
   10160:	00f12623          	sw	a5,12(sp)
   10164:	00c12783          	lw	a5,12(sp)
   10168:	fef778e3          	bgeu	a4,a5,10158 <main+0xa8>
   1016c:	10802783          	lw	a5,264(zero) # 108 <main-0xffa8>
   10170:	40f4043b          	subw	s0,s0,a5
   10174:	0af47a63          	bgeu	s0,a5,10228 <main+0x178>
   10178:	000127b7          	lui	a5,0x12
   1017c:	3207a587          	flw	fa1,800(a5) # 12320 <__DATA_BEGIN__+0x4>
   10180:	000127b7          	lui	a5,0x12
   10184:	3247a507          	flw	fa0,804(a5) # 12324 <__DATA_BEGIN__+0x8>
   10188:	000127b7          	lui	a5,0x12
   1018c:	3287a607          	flw	fa2,808(a5) # 12328 <__DATA_BEGIN__+0xc>
   10190:	000127b7          	lui	a5,0x12
   10194:	f0000053          	fmv.w.x	ft0,zero
   10198:	31c7a087          	flw	ft1,796(a5) # 1231c <__DATA_BEGIN__>
   1019c:	ff0006b7          	lui	a3,0xff000
   101a0:	17003783          	ld	a5,368(zero) # 170 <main-0xff40>
   101a4:	02041413          	sll	s0,s0,0x20
   101a8:	02045413          	srl	s0,s0,0x20
   101ac:	00441713          	sll	a4,s0,0x4
   101b0:	00e787b3          	add	a5,a5,a4
   101b4:	0007ce0b          	lhit	ft8,0(a5)
   101b8:	280f16d3          	fmax.s	fa3,ft10,ft0
   101bc:	280e1753          	fmax.s	fa4,ft8,ft0
   101c0:	280e97d3          	fmax.s	fa5,ft9,ft0
   101c4:	28b686d3          	fmin.s	fa3,fa3,fa1
   101c8:	28b70753          	fmin.s	fa4,fa4,fa1
   101cc:	28b787d3          	fmin.s	fa5,fa5,fa1
   101d0:	60a6f6c3          	fmadd.s	fa3,fa3,fa0,fa2
   101d4:	60a77743          	fmadd.s	fa4,fa4,fa0,fa2
   101d8:	60a7f7c3          	fmadd.s	fa5,fa5,fa0,fa2
   101dc:	00241413          	sll	s0,s0,0x2
   101e0:	c01697d3          	fcvt.wu.s	a5,fa3,rtz
   101e4:	c0171753          	fcvt.wu.s	a4,fa4,rtz
   101e8:	c0179653          	fcvt.wu.s	a2,fa5,rtz
   101ec:	0087979b          	sllw	a5,a5,0x8
   101f0:	0107171b          	sllw	a4,a4,0x10
   101f4:	00e7e7b3          	or	a5,a5,a4
   101f8:	16803703          	ld	a4,360(zero) # 168 <main-0xff48>
   101fc:	00c7e7b3          	or	a5,a5,a2
   10200:	a01e1653          	flt.s	a2,ft8,ft1
   10204:	00d7e7b3          	or	a5,a5,a3
   10208:	00870733          	add	a4,a4,s0
   1020c:	00f72023          	sw	a5,0(a4)
   10210:	e00f87d3          	fmv.x.w	a5,ft11
   10214:	02061863          	bnez	a2,10244 <main+0x194>
   10218:	0000040b          	fchthrd	s0
   1021c:	10802783          	lw	a5,264(zero) # 108 <main-0xffa8>
   10220:	40f4043b          	subw	s0,s0,a5
   10224:	f6f46ee3          	bltu	s0,a5,101a0 <main+0xf0>
   10228:	02813083          	ld	ra,40(sp)
   1022c:	02013403          	ld	s0,32(sp)
   10230:	00000513          	li	a0,0
   10234:	03010113          	add	sp,sp,48
   10238:	00008067          	ret
   1023c:	00000513          	li	a0,0
   10240:	00008067          	ret
   10244:	02079793          	sll	a5,a5,0x20
   10248:	0207d793          	srl	a5,a5,0x20
   1024c:	00379613          	sll	a2,a5,0x3
   10250:	00f60633          	add	a2,a2,a5
   10254:	18003783          	ld	a5,384(zero) # 180 <main-0xff30>
   10258:	00261613          	sll	a2,a2,0x2
   1025c:	00c787b3          	add	a5,a5,a2
   10260:	0187a107          	flw	ft2,24(a5)
   10264:	0207a307          	flw	ft6,32(a5)
   10268:	0007a707          	flw	fa4,0(a5)
   1026c:	0147a787          	flw	fa5,20(a5)
   10270:	01c7a287          	flw	ft5,28(a5)
   10274:	08277753          	fsub.s	fa4,fa4,ft2
   10278:	0867f7d3          	fsub.s	fa5,fa5,ft6
   1027c:	0087a687          	flw	fa3,8(a5)
   10280:	00c7a187          	flw	ft3,12(a5)
   10284:	0107a207          	flw	ft4,16(a5)
   10288:	0866f6d3          	fsub.s	fa3,fa3,ft6
   1028c:	10f773d3          	fmul.s	ft7,fa4,fa5
   10290:	0821f1d3          	fsub.s	ft3,ft3,ft2
   10294:	08527253          	fsub.s	ft4,ft4,ft5
   10298:	0047a107          	flw	ft2,4(a5)
   1029c:	08517153          	fsub.s	ft2,ft2,ft5
   102a0:	1046f353          	fmul.s	ft6,fa3,ft4
   102a4:	3836f6c7          	fmsub.s	fa3,fa3,ft3,ft7
   102a8:	103171d3          	fmul.s	ft3,ft2,ft3
   102ac:	30f177c7          	fmsub.s	fa5,ft2,fa5,ft6
   102b0:	10d6f153          	fmul.s	ft2,fa3,fa3
   102b4:	18477747          	fmsub.s	fa4,fa4,ft4,ft3
   102b8:	10f7f143          	fmadd.s	ft2,fa5,fa5,ft2
   102bc:	10e77143          	fmadd.s	ft2,fa4,fa4,ft2
   102c0:	58017153          	fsqrt.s	ft2,ft2
   102c4:	1826f6d3          	fdiv.s	fa3,fa3,ft2
   102c8:	18277753          	fdiv.s	fa4,fa4,ft2
   102cc:	00b6f6d3          	fadd.s	fa3,fa3,fa1
   102d0:	10c6f6d3          	fmul.s	fa3,fa3,fa2
   102d4:	280696d3          	fmax.s	fa3,fa3,ft0
   102d8:	28b686d3          	fmin.s	fa3,fa3,fa1
   102dc:	60a6f6c3          	fmadd.s	fa3,fa3,fa0,fa2
   102e0:	1827f7d3          	fdiv.s	fa5,fa5,ft2
   102e4:	00b77753          	fadd.s	fa4,fa4,fa1
   102e8:	c01697d3          	fcvt.wu.s	a5,fa3,rtz
   102ec:	0087979b          	sllw	a5,a5,0x8
   102f0:	10c77753          	fmul.s	fa4,fa4,fa2
   102f4:	28071753          	fmax.s	fa4,fa4,ft0
   102f8:	28b70753          	fmin.s	fa4,fa4,fa1
   102fc:	60a77743          	fmadd.s	fa4,fa4,fa0,fa2
   10300:	00b7f7d3          	fadd.s	fa5,fa5,fa1
   10304:	c0171653          	fcvt.wu.s	a2,fa4,rtz
   10308:	10c7f7d3          	fmul.s	fa5,fa5,fa2
   1030c:	0106161b          	sllw	a2,a2,0x10
   10310:	00c7e7b3          	or	a5,a5,a2
   10314:	280797d3          	fmax.s	fa5,fa5,ft0
   10318:	28b787d3          	fmin.s	fa5,fa5,fa1
   1031c:	60a7f7c3          	fmadd.s	fa5,fa5,fa0,fa2
   10320:	c0179653          	fcvt.wu.s	a2,fa5,rtz
   10324:	00c7e7b3          	or	a5,a5,a2
   10328:	00d7e7b3          	or	a5,a5,a3
   1032c:	00f72023          	sw	a5,0(a4)
   10330:	0000040b          	fchthrd	s0
   10334:	10802783          	lw	a5,264(zero) # 108 <main-0xffa8>
   10338:	40f4043b          	subw	s0,s0,a5
   1033c:	e6f462e3          	bltu	s0,a5,101a0 <main+0xf0>
   10340:	ee9ff06f          	j	10228 <main+0x178>

0000000000010344 <_Z17intersect_bucketsRK23DualStreamingKernelArgs>:
   10344:	ab010113          	add	sp,sp,-1360
   10348:	01854703          	lbu	a4,24(a0)
   1034c:	01954f03          	lbu	t5,25(a0)
   10350:	4e812e27          	fsw	fs0,1276(sp)
   10354:	4e912c27          	fsw	fs1,1272(sp)
   10358:	0000100b          	lwi	ft0,0(zero) # 0 <main-0x100b0>
   1035c:	e00486d3          	fmv.x.w	a3,fs1
   10360:	fff00613          	li	a2,-1
   10364:	0006869b          	sext.w	a3,a3
   10368:	4ac68263          	beq	a3,a2,1080c <_Z17intersect_bucketsRK23DualStreamingKernelArgs+0x4c8>
   1036c:	00012637          	lui	a2,0x12
   10370:	4db12827          	fsw	fs11,1232(sp)
   10374:	32062d87          	flw	fs11,800(a2) # 12320 <__DATA_BEGIN__+0x4>
   10378:	00012637          	lui	a2,0x12
   1037c:	e00407d3          	fmv.x.w	a5,fs0
   10380:	31c62787          	flw	fa5,796(a2) # 1231c <__DATA_BEGIN__>
   10384:	4f312827          	fsw	fs3,1264(sp)
   10388:	4f512427          	fsw	fs5,1256(sp)
   1038c:	4f612227          	fsw	fs6,1252(sp)
   10390:	4da12a27          	fsw	fs10,1236(sp)
   10394:	20000753          	fmv.s	fa4,ft0
   10398:	201086d3          	fmv.s	fa3,ft1
   1039c:	20210653          	fmv.s	fa2,ft2
   103a0:	203189d3          	fmv.s	fs3,ft3
   103a4:	20528ad3          	fmv.s	fs5,ft5
   103a8:	20630b53          	fmv.s	fs6,ft6
   103ac:	20420d53          	fmv.s	fs10,ft4
   103b0:	40000337          	lui	t1,0x40000
   103b4:	54813423          	sd	s0,1352(sp)
   103b8:	54913023          	sd	s1,1344(sp)
   103bc:	53213c23          	sd	s2,1336(sp)
   103c0:	53313823          	sd	s3,1328(sp)
   103c4:	53413423          	sd	s4,1320(sp)
   103c8:	53513023          	sd	s5,1312(sp)
   103cc:	51613c23          	sd	s6,1304(sp)
   103d0:	51713823          	sd	s7,1296(sp)
   103d4:	51813423          	sd	s8,1288(sp)
   103d8:	4f212a27          	fsw	fs2,1268(sp)
   103dc:	4f412627          	fsw	fs4,1260(sp)
   103e0:	4f712027          	fsw	fs7,1248(sp)
   103e4:	4d812e27          	fsw	fs8,1244(sp)
   103e8:	4d912c27          	fsw	fs9,1240(sp)
   103ec:	00000393          	li	t2,0
   103f0:	0007841b          	sext.w	s0,a5
   103f4:	00f12e27          	fsw	fa5,28(sp)
   103f8:	00100913          	li	s2,1
   103fc:	fff30313          	add	t1,t1,-1 # 3fffffff <__global_pointer$+0x3ffed4e3>
   10400:	fff00493          	li	s1,-1
   10404:	05010e93          	add	t4,sp,80
   10408:	01000993          	li	s3,16
   1040c:	00100f93          	li	t6,1
   10410:	000102b7          	lui	t0,0x10
   10414:	40071463          	bnez	a4,1081c <_Z17intersect_bucketsRK23DualStreamingKernelArgs+0x4d8>
   10418:	207387d3          	fmv.s	fa5,ft7
   1041c:	19adf053          	fdiv.s	ft0,fs11,fs10
   10420:	02069693          	sll	a3,a3,0x20
   10424:	0206d693          	srl	a3,a3,0x20
   10428:	00369613          	sll	a2,a3,0x3
   1042c:	07853583          	ld	a1,120(a0)
   10430:	40d606b3          	sub	a3,a2,a3
   10434:	00d69693          	sll	a3,a3,0xd
   10438:	00d585b3          	add	a1,a1,a3
   1043c:	0505a603          	lw	a2,80(a1)
   10440:	0545a683          	lw	a3,84(a1)
   10444:	0c012823          	sw	zero,208(sp)
   10448:	0c012e23          	sw	zero,220(sp)
   1044c:	0cc12a23          	sw	a2,212(sp)
   10450:	0cd12c23          	sw	a3,216(sp)
   10454:	00000893          	li	a7,0
   10458:	00100813          	li	a6,1
   1045c:	01a12627          	fsw	fs10,12(sp)
   10460:	195df553          	fdiv.s	fa0,fs11,fs5
   10464:	196df5d3          	fdiv.s	fa1,fs11,fs6
   10468:	fff8081b          	addw	a6,a6,-1
   1046c:	02081613          	sll	a2,a6,0x20
   10470:	01c65693          	srl	a3,a2,0x1c
   10474:	4b068693          	add	a3,a3,1200 # ffffffffff0004b0 <__global_pointer$+0xfffffffffefed994>
   10478:	02010613          	add	a2,sp,32
   1047c:	00c686b3          	add	a3,a3,a2
   10480:	c006b603          	ld	a2,-1024(a3)
   10484:	c086be03          	ld	t3,-1016(a3)
   10488:	f00600d3          	fmv.w.x	ft1,a2
   1048c:	04c13023          	sd	a2,64(sp)
   10490:	05c13423          	sd	t3,72(sp)
   10494:	a01786d3          	fle.s	a3,fa5,ft1
   10498:	3a068063          	beqz	a3,10838 <_Z17intersect_bucketsRK23DualStreamingKernelArgs+0x4f4>
   1049c:	fc0816e3          	bnez	a6,10468 <_Z17intersect_bucketsRK23DualStreamingKernelArgs+0x124>
   104a0:	00c12d07          	flw	fs10,12(sp)
   104a4:	01c12587          	flw	fa1,28(sp)
   104a8:	000f0463          	beqz	t5,104b0 <_Z17intersect_bucketsRK23DualStreamingKernelArgs+0x16c>
   104ac:	21ce05d3          	fmv.s	fa1,ft8
   104b0:	a0f596d3          	flt.s	a3,fa1,fa5
   104b4:	0c0686e3          	beqz	a3,10d80 <_Z17intersect_bucketsRK23DualStreamingKernelArgs+0xa3c>
   104b8:	20b587d3          	fmv.s	fa5,fa1
   104bc:	2c088863          	beqz	a7,1078c <_Z17intersect_bucketsRK23DualStreamingKernelArgs+0x448>
   104c0:	01c52683          	lw	a3,28(a0)
   104c4:	0f268ae3          	beq	a3,s2,10db8 <_Z17intersect_bucketsRK23DualStreamingKernelArgs+0xa74>
   104c8:	180714e3          	bnez	a4,10e50 <_Z17intersect_bucketsRK23DualStreamingKernelArgs+0xb0c>
   104cc:	fff8869b          	addw	a3,a7,-1
   104d0:	02069593          	sll	a1,a3,0x20
   104d4:	01e5d613          	srl	a2,a1,0x1e
   104d8:	4b060613          	add	a2,a2,1200
   104dc:	02010593          	add	a1,sp,32
   104e0:	00b60633          	add	a2,a2,a1
   104e4:	b8062603          	lw	a2,-1152(a2)
   104e8:	20e70053          	fmv.s	ft0,fa4
   104ec:	20d680d3          	fmv.s	ft1,fa3
   104f0:	00566633          	or	a2,a2,t0
   104f4:	20c60153          	fmv.s	ft2,fa2
   104f8:	213981d3          	fmv.s	ft3,fs3
   104fc:	21ad0253          	fmv.s	ft4,fs10
   10500:	215a82d3          	fmv.s	ft5,fs5
   10504:	216b0353          	fmv.s	ft6,fs6
   10508:	20b583d3          	fmv.s	ft7,fa1
   1050c:	f0078453          	fmv.w.x	fs0,a5
   10510:	f00604d3          	fmv.w.x	fs1,a2
   10514:	1000200b          	swi	ft0,256(zero) # 100 <main-0xffb0>
   10518:	26068a63          	beqz	a3,1078c <_Z17intersect_bucketsRK23DualStreamingKernelArgs+0x448>
   1051c:	ffe8869b          	addw	a3,a7,-2
   10520:	02069593          	sll	a1,a3,0x20
   10524:	01e5d613          	srl	a2,a1,0x1e
   10528:	4b060613          	add	a2,a2,1200
   1052c:	02010593          	add	a1,sp,32
   10530:	00b60633          	add	a2,a2,a1
   10534:	b8062603          	lw	a2,-1152(a2)
   10538:	00566633          	or	a2,a2,t0
   1053c:	f00604d3          	fmv.w.x	fs1,a2
   10540:	1000200b          	swi	ft0,256(zero) # 100 <main-0xffb0>
   10544:	24068463          	beqz	a3,1078c <_Z17intersect_bucketsRK23DualStreamingKernelArgs+0x448>
   10548:	ffd8869b          	addw	a3,a7,-3
   1054c:	02069593          	sll	a1,a3,0x20
   10550:	01e5d613          	srl	a2,a1,0x1e
   10554:	4b060613          	add	a2,a2,1200
   10558:	02010593          	add	a1,sp,32
   1055c:	00b60633          	add	a2,a2,a1
   10560:	b8062603          	lw	a2,-1152(a2)
   10564:	00566633          	or	a2,a2,t0
   10568:	f00604d3          	fmv.w.x	fs1,a2
   1056c:	1000200b          	swi	ft0,256(zero) # 100 <main-0xffb0>
   10570:	20068e63          	beqz	a3,1078c <_Z17intersect_bucketsRK23DualStreamingKernelArgs+0x448>
   10574:	ffc8869b          	addw	a3,a7,-4
   10578:	02069593          	sll	a1,a3,0x20
   1057c:	01e5d613          	srl	a2,a1,0x1e
   10580:	4b060613          	add	a2,a2,1200
   10584:	02010593          	add	a1,sp,32
   10588:	00b60633          	add	a2,a2,a1
   1058c:	b8062603          	lw	a2,-1152(a2)
   10590:	00566633          	or	a2,a2,t0
   10594:	f00604d3          	fmv.w.x	fs1,a2
   10598:	1000200b          	swi	ft0,256(zero) # 100 <main-0xffb0>
   1059c:	1e068863          	beqz	a3,1078c <_Z17intersect_bucketsRK23DualStreamingKernelArgs+0x448>
   105a0:	ffb8869b          	addw	a3,a7,-5
   105a4:	02069593          	sll	a1,a3,0x20
   105a8:	01e5d613          	srl	a2,a1,0x1e
   105ac:	4b060613          	add	a2,a2,1200
   105b0:	02010593          	add	a1,sp,32
   105b4:	00b60633          	add	a2,a2,a1
   105b8:	b8062603          	lw	a2,-1152(a2)
   105bc:	00566633          	or	a2,a2,t0
   105c0:	f00604d3          	fmv.w.x	fs1,a2
   105c4:	1000200b          	swi	ft0,256(zero) # 100 <main-0xffb0>
   105c8:	1c068263          	beqz	a3,1078c <_Z17intersect_bucketsRK23DualStreamingKernelArgs+0x448>
   105cc:	ffa8869b          	addw	a3,a7,-6
   105d0:	02069593          	sll	a1,a3,0x20
   105d4:	01e5d613          	srl	a2,a1,0x1e
   105d8:	4b060613          	add	a2,a2,1200
   105dc:	02010593          	add	a1,sp,32
   105e0:	00b60633          	add	a2,a2,a1
   105e4:	b8062603          	lw	a2,-1152(a2)
   105e8:	00566633          	or	a2,a2,t0
   105ec:	f00604d3          	fmv.w.x	fs1,a2
   105f0:	1000200b          	swi	ft0,256(zero) # 100 <main-0xffb0>
   105f4:	18068c63          	beqz	a3,1078c <_Z17intersect_bucketsRK23DualStreamingKernelArgs+0x448>
   105f8:	ff98869b          	addw	a3,a7,-7
   105fc:	02069593          	sll	a1,a3,0x20
   10600:	01e5d613          	srl	a2,a1,0x1e
   10604:	4b060613          	add	a2,a2,1200
   10608:	02010593          	add	a1,sp,32
   1060c:	00b60633          	add	a2,a2,a1
   10610:	b8062603          	lw	a2,-1152(a2)
   10614:	00566633          	or	a2,a2,t0
   10618:	f00604d3          	fmv.w.x	fs1,a2
   1061c:	1000200b          	swi	ft0,256(zero) # 100 <main-0xffb0>
   10620:	16068663          	beqz	a3,1078c <_Z17intersect_bucketsRK23DualStreamingKernelArgs+0x448>
   10624:	ff88869b          	addw	a3,a7,-8
   10628:	02069593          	sll	a1,a3,0x20
   1062c:	01e5d613          	srl	a2,a1,0x1e
   10630:	4b060613          	add	a2,a2,1200
   10634:	02010593          	add	a1,sp,32
   10638:	00b60633          	add	a2,a2,a1
   1063c:	b8062603          	lw	a2,-1152(a2)
   10640:	00566633          	or	a2,a2,t0
   10644:	f00604d3          	fmv.w.x	fs1,a2
   10648:	1000200b          	swi	ft0,256(zero) # 100 <main-0xffb0>
   1064c:	14068063          	beqz	a3,1078c <_Z17intersect_bucketsRK23DualStreamingKernelArgs+0x448>
   10650:	ff78879b          	addw	a5,a7,-9
   10654:	02079613          	sll	a2,a5,0x20
   10658:	01e65693          	srl	a3,a2,0x1e
   1065c:	4b068693          	add	a3,a3,1200
   10660:	00b686b3          	add	a3,a3,a1
   10664:	b806a683          	lw	a3,-1152(a3)
   10668:	0056e6b3          	or	a3,a3,t0
   1066c:	f00684d3          	fmv.w.x	fs1,a3
   10670:	1000200b          	swi	ft0,256(zero) # 100 <main-0xffb0>
   10674:	10078c63          	beqz	a5,1078c <_Z17intersect_bucketsRK23DualStreamingKernelArgs+0x448>
   10678:	ff68879b          	addw	a5,a7,-10
   1067c:	02079613          	sll	a2,a5,0x20
   10680:	01e65693          	srl	a3,a2,0x1e
   10684:	4b068693          	add	a3,a3,1200
   10688:	00b686b3          	add	a3,a3,a1
   1068c:	b806a683          	lw	a3,-1152(a3)
   10690:	0056e6b3          	or	a3,a3,t0
   10694:	f00684d3          	fmv.w.x	fs1,a3
   10698:	1000200b          	swi	ft0,256(zero) # 100 <main-0xffb0>
   1069c:	0e078863          	beqz	a5,1078c <_Z17intersect_bucketsRK23DualStreamingKernelArgs+0x448>
   106a0:	ff58879b          	addw	a5,a7,-11
   106a4:	02079613          	sll	a2,a5,0x20
   106a8:	01e65693          	srl	a3,a2,0x1e
   106ac:	4b068693          	add	a3,a3,1200
   106b0:	00b686b3          	add	a3,a3,a1
   106b4:	b806a683          	lw	a3,-1152(a3)
   106b8:	0056e6b3          	or	a3,a3,t0
   106bc:	f00684d3          	fmv.w.x	fs1,a3
   106c0:	1000200b          	swi	ft0,256(zero) # 100 <main-0xffb0>
   106c4:	0c078463          	beqz	a5,1078c <_Z17intersect_bucketsRK23DualStreamingKernelArgs+0x448>
   106c8:	ff48879b          	addw	a5,a7,-12
   106cc:	02079613          	sll	a2,a5,0x20
   106d0:	01e65693          	srl	a3,a2,0x1e
   106d4:	4b068693          	add	a3,a3,1200
   106d8:	00b686b3          	add	a3,a3,a1
   106dc:	b806a683          	lw	a3,-1152(a3)
   106e0:	0056e6b3          	or	a3,a3,t0
   106e4:	f00684d3          	fmv.w.x	fs1,a3
   106e8:	1000200b          	swi	ft0,256(zero) # 100 <main-0xffb0>
   106ec:	0a078063          	beqz	a5,1078c <_Z17intersect_bucketsRK23DualStreamingKernelArgs+0x448>
   106f0:	ff38879b          	addw	a5,a7,-13
   106f4:	02079613          	sll	a2,a5,0x20
   106f8:	01e65693          	srl	a3,a2,0x1e
   106fc:	4b068693          	add	a3,a3,1200
   10700:	00b686b3          	add	a3,a3,a1
   10704:	b806a683          	lw	a3,-1152(a3)
   10708:	0056e6b3          	or	a3,a3,t0
   1070c:	f00684d3          	fmv.w.x	fs1,a3
   10710:	1000200b          	swi	ft0,256(zero) # 100 <main-0xffb0>
   10714:	06078c63          	beqz	a5,1078c <_Z17intersect_bucketsRK23DualStreamingKernelArgs+0x448>
   10718:	ff28879b          	addw	a5,a7,-14
   1071c:	02079613          	sll	a2,a5,0x20
   10720:	01e65693          	srl	a3,a2,0x1e
   10724:	4b068693          	add	a3,a3,1200
   10728:	00b686b3          	add	a3,a3,a1
   1072c:	b806a683          	lw	a3,-1152(a3)
   10730:	0056e6b3          	or	a3,a3,t0
   10734:	f00684d3          	fmv.w.x	fs1,a3
   10738:	1000200b          	swi	ft0,256(zero) # 100 <main-0xffb0>
   1073c:	04078863          	beqz	a5,1078c <_Z17intersect_bucketsRK23DualStreamingKernelArgs+0x448>
   10740:	ff18879b          	addw	a5,a7,-15
   10744:	02079613          	sll	a2,a5,0x20
   10748:	01e65693          	srl	a3,a2,0x1e
   1074c:	4b068693          	add	a3,a3,1200
   10750:	00b686b3          	add	a3,a3,a1
   10754:	b806a683          	lw	a3,-1152(a3)
   10758:	0056e6b3          	or	a3,a3,t0
   1075c:	f00684d3          	fmv.w.x	fs1,a3
   10760:	1000200b          	swi	ft0,256(zero) # 100 <main-0xffb0>
   10764:	02078463          	beqz	a5,1078c <_Z17intersect_bucketsRK23DualStreamingKernelArgs+0x448>
   10768:	ff08879b          	addw	a5,a7,-16
   1076c:	02079693          	sll	a3,a5,0x20
   10770:	01e6d793          	srl	a5,a3,0x1e
   10774:	4b078793          	add	a5,a5,1200
   10778:	00b787b3          	add	a5,a5,a1
   1077c:	b807a783          	lw	a5,-1152(a5)
   10780:	0057e7b3          	or	a5,a5,t0
   10784:	f00784d3          	fmv.w.x	fs1,a5
   10788:	1000200b          	swi	ft0,256(zero) # 100 <main-0xffb0>
   1078c:	0000100b          	lwi	ft0,0(zero) # 0 <main-0x100b0>
   10790:	e00486d3          	fmv.x.w	a3,fs1
   10794:	e00407d3          	fmv.x.w	a5,fs0
   10798:	20000753          	fmv.s	fa4,ft0
   1079c:	0006869b          	sext.w	a3,a3
   107a0:	201086d3          	fmv.s	fa3,ft1
   107a4:	20210653          	fmv.s	fa2,ft2
   107a8:	203189d3          	fmv.s	fs3,ft3
   107ac:	20420d53          	fmv.s	fs10,ft4
   107b0:	20528ad3          	fmv.s	fs5,ft5
   107b4:	20630b53          	fmv.s	fs6,ft6
   107b8:	0007841b          	sext.w	s0,a5
   107bc:	c4969ce3          	bne	a3,s1,10414 <_Z17intersect_bucketsRK23DualStreamingKernelArgs+0xd0>
   107c0:	54813403          	ld	s0,1352(sp)
   107c4:	54013483          	ld	s1,1344(sp)
   107c8:	53813903          	ld	s2,1336(sp)
   107cc:	53013983          	ld	s3,1328(sp)
   107d0:	52813a03          	ld	s4,1320(sp)
   107d4:	52013a83          	ld	s5,1312(sp)
   107d8:	51813b03          	ld	s6,1304(sp)
   107dc:	51013b83          	ld	s7,1296(sp)
   107e0:	50813c03          	ld	s8,1288(sp)
   107e4:	4f412907          	flw	fs2,1268(sp)
   107e8:	4f012987          	flw	fs3,1264(sp)
   107ec:	4ec12a07          	flw	fs4,1260(sp)
   107f0:	4e812a87          	flw	fs5,1256(sp)
   107f4:	4e412b07          	flw	fs6,1252(sp)
   107f8:	4e012b87          	flw	fs7,1248(sp)
   107fc:	4dc12c07          	flw	fs8,1244(sp)
   10800:	4d812c87          	flw	fs9,1240(sp)
   10804:	4d412d07          	flw	fs10,1236(sp)
   10808:	4d012d87          	flw	fs11,1232(sp)
   1080c:	4fc12407          	flw	fs0,1276(sp)
   10810:	4f812487          	flw	fs1,1272(sp)
   10814:	55010113          	add	sp,sp,1360
   10818:	00008067          	ret
   1081c:	07053603          	ld	a2,112(a0)
   10820:	02041813          	sll	a6,s0,0x20
   10824:	01c85593          	srl	a1,a6,0x1c
   10828:	00b60633          	add	a2,a2,a1
   1082c:	100f06e3          	beqz	t5,11138 <_Z17intersect_bucketsRK23DualStreamingKernelArgs+0xdf4>
   10830:	00064e0b          	lhit	ft8,0(a2)
   10834:	be5ff06f          	j	10418 <_Z17intersect_bucketsRK23DualStreamingKernelArgs+0xd4>
   10838:	04412603          	lw	a2,68(sp)
   1083c:	00167693          	and	a3,a2,1
   10840:	22069263          	bnez	a3,10a64 <_Z17intersect_bucketsRK23DualStreamingKernelArgs+0x720>
   10844:	04c12a03          	lw	s4,76(sp)
   10848:	a0f39e53          	flt.s	t3,ft7,fa5
   1084c:	020a1693          	sll	a3,s4,0x20
   10850:	01a6da13          	srl	s4,a3,0x1a
   10854:	020a0693          	add	a3,s4,32
   10858:	00d586b3          	add	a3,a1,a3
   1085c:	0006a087          	flw	ft1,0(a3)
   10860:	0046a207          	flw	ft4,4(a3)
   10864:	00c6a807          	flw	fa6,12(a3)
   10868:	0106a307          	flw	ft6,16(a3)
   1086c:	08e0f0d3          	fsub.s	ft1,ft1,fa4
   10870:	08d27253          	fsub.s	ft4,ft4,fa3
   10874:	08e87853          	fsub.s	fa6,fa6,fa4
   10878:	08d37353          	fsub.s	ft6,ft6,fa3
   1087c:	0086a187          	flw	ft3,8(a3)
   10880:	0146a287          	flw	ft5,20(a3)
   10884:	1000f0d3          	fmul.s	ft1,ft1,ft0
   10888:	10a27253          	fmul.s	ft4,ft4,fa0
   1088c:	10087853          	fmul.s	fa6,fa6,ft0
   10890:	10a37353          	fmul.s	ft6,ft6,fa0
   10894:	08c1f1d3          	fsub.s	ft3,ft3,fa2
   10898:	08c2f2d3          	fsub.s	ft5,ft5,fa2
   1089c:	04813683          	ld	a3,72(sp)
   108a0:	29008153          	fmin.s	ft2,ft1,fa6
   108a4:	286208d3          	fmin.s	fa7,ft4,ft6
   108a8:	290090d3          	fmax.s	ft1,ft1,fa6
   108ac:	28621253          	fmax.s	ft4,ft4,ft6
   108b0:	10b1f1d3          	fmul.s	ft3,ft3,fa1
   108b4:	10b2f2d3          	fmul.s	ft5,ft5,fa1
   108b8:	284080d3          	fmin.s	ft1,ft1,ft4
   108bc:	29111153          	fmax.s	ft2,ft2,fa7
   108c0:	038a0b93          	add	s7,s4,56
   108c4:	287080d3          	fmin.s	ft1,ft1,ft7
   108c8:	28518253          	fmin.s	ft4,ft3,ft5
   108cc:	29311153          	fmax.s	ft2,ft2,fs3
   108d0:	285191d3          	fmax.s	ft3,ft3,ft5
   108d4:	04812a83          	lw	s5,72(sp)
   108d8:	28411153          	fmax.s	ft2,ft2,ft4
   108dc:	283080d3          	fmin.s	ft1,ft1,ft3
   108e0:	04013a03          	ld	s4,64(sp)
   108e4:	0026d693          	srl	a3,a3,0x2
   108e8:	a0209b53          	flt.s	s6,ft1,ft2
   108ec:	0066f6b3          	and	a3,a3,t1
   108f0:	022a5a13          	srl	s4,s4,0x22
   108f4:	00068c1b          	sext.w	s8,a3
   108f8:	01758bb3          	add	s7,a1,s7
   108fc:	00267613          	and	a2,a2,2
   10900:	002afa93          	and	s5,s5,2
   10904:	320b1a63          	bnez	s6,10c38 <_Z17intersect_bucketsRK23DualStreamingKernelArgs+0x8f4>
   10908:	a13096d3          	flt.s	a3,ft1,fs3
   1090c:	32069663          	bnez	a3,10c38 <_Z17intersect_bucketsRK23DualStreamingKernelArgs+0x8f4>
   10910:	000ba087          	flw	ft1,0(s7)
   10914:	004ba287          	flw	ft5,4(s7)
   10918:	00cba887          	flw	fa7,12(s7)
   1091c:	010ba807          	flw	fa6,16(s7)
   10920:	08e0f0d3          	fsub.s	ft1,ft1,fa4
   10924:	08d2f2d3          	fsub.s	ft5,ft5,fa3
   10928:	08e8f8d3          	fsub.s	fa7,fa7,fa4
   1092c:	08d87853          	fsub.s	fa6,fa6,fa3
   10930:	008ba207          	flw	ft4,8(s7)
   10934:	014ba307          	flw	ft6,20(s7)
   10938:	1000f0d3          	fmul.s	ft1,ft1,ft0
   1093c:	10a2f2d3          	fmul.s	ft5,ft5,fa0
   10940:	1008f8d3          	fmul.s	fa7,fa7,ft0
   10944:	10a87853          	fmul.s	fa6,fa6,fa0
   10948:	08c27253          	fsub.s	ft4,ft4,fa2
   1094c:	08c37353          	fsub.s	ft6,ft6,fa2
   10950:	291081d3          	fmin.s	ft3,ft1,fa7
   10954:	29028453          	fmin.s	fs0,ft5,fa6
   10958:	291090d3          	fmax.s	ft1,ft1,fa7
   1095c:	290292d3          	fmax.s	ft5,ft5,fa6
   10960:	10b27253          	fmul.s	ft4,ft4,fa1
   10964:	10b37353          	fmul.s	ft6,ft6,fa1
   10968:	285080d3          	fmin.s	ft1,ft1,ft5
   1096c:	288191d3          	fmax.s	ft3,ft3,fs0
   10970:	287080d3          	fmin.s	ft1,ft1,ft7
   10974:	286202d3          	fmin.s	ft5,ft4,ft6
   10978:	293191d3          	fmax.s	ft3,ft3,fs3
   1097c:	28621253          	fmax.s	ft4,ft4,ft6
   10980:	285191d3          	fmax.s	ft3,ft3,ft5
   10984:	284080d3          	fmin.s	ft1,ft1,ft4
   10988:	a03096d3          	flt.s	a3,ft1,ft3
   1098c:	22069463          	bnez	a3,10bb4 <_Z17intersect_bucketsRK23DualStreamingKernelArgs+0x870>
   10990:	a13096d3          	flt.s	a3,ft1,fs3
   10994:	22069063          	bnez	a3,10bb4 <_Z17intersect_bucketsRK23DualStreamingKernelArgs+0x870>
   10998:	22060263          	beqz	a2,10bbc <_Z17intersect_bucketsRK23DualStreamingKernelArgs+0x878>
   1099c:	a03116d3          	flt.s	a3,ft2,ft3
   109a0:	2a068863          	beqz	a3,10c50 <_Z17intersect_bucketsRK23DualStreamingKernelArgs+0x90c>
   109a4:	a0f116d3          	flt.s	a3,ft2,fa5
   109a8:	02068a63          	beqz	a3,109dc <_Z17intersect_bucketsRK23DualStreamingKernelArgs+0x698>
   109ac:	02089693          	sll	a3,a7,0x20
   109b0:	01e6db13          	srl	s6,a3,0x1e
   109b4:	4b0b0613          	add	a2,s6,1200
   109b8:	a0f196d3          	flt.s	a3,ft3,fa5
   109bc:	02010b13          	add	s6,sp,32
   109c0:	01660b33          	add	s6,a2,s6
   109c4:	bc2b2027          	fsw	ft2,-1088(s6)
   109c8:	0018861b          	addw	a2,a7,1
   109cc:	b94b2023          	sw	s4,-1152(s6)
   109d0:	00060b1b          	sext.w	s6,a2
   109d4:	2e069463          	bnez	a3,10cbc <_Z17intersect_bucketsRK23DualStreamingKernelArgs+0x978>
   109d8:	000b0893          	mv	a7,s6
   109dc:	20738153          	fmv.s	ft2,ft7
   109e0:	000e0693          	mv	a3,t3
   109e4:	240a8e63          	beqz	s5,10c40 <_Z17intersect_bucketsRK23DualStreamingKernelArgs+0x8fc>
   109e8:	a0f11653          	flt.s	a2,ft2,fa5
   109ec:	04060263          	beqz	a2,10a30 <_Z17intersect_bucketsRK23DualStreamingKernelArgs+0x6ec>
   109f0:	001a0613          	add	a2,s4,1
   109f4:	00661613          	sll	a2,a2,0x6
   109f8:	00c58633          	add	a2,a1,a2
   109fc:	01063a83          	ld	s5,16(a2)
   10a00:	02081b13          	sll	s6,a6,0x20
   10a04:	01cb5613          	srl	a2,s6,0x1c
   10a08:	4b060613          	add	a2,a2,1200
   10a0c:	02010b13          	add	s6,sp,32
   10a10:	01660633          	add	a2,a2,s6
   10a14:	420adb13          	sra	s6,s5,0x20
   10a18:	03513823          	sd	s5,48(sp)
   10a1c:	c0262027          	fsw	ft2,-1024(a2)
   10a20:	c1562223          	sw	s5,-1020(a2)
   10a24:	c1662423          	sw	s6,-1016(a2)
   10a28:	c1462623          	sw	s4,-1012(a2)
   10a2c:	0018081b          	addw	a6,a6,1
   10a30:	a60686e3          	beqz	a3,1049c <_Z17intersect_bucketsRK23DualStreamingKernelArgs+0x158>
   10a34:	020c1613          	sll	a2,s8,0x20
   10a38:	01a65693          	srl	a3,a2,0x1a
   10a3c:	00d586b3          	add	a3,a1,a3
   10a40:	0506b683          	ld	a3,80(a3)
   10a44:	000c0a13          	mv	s4,s8
   10a48:	4206d613          	sra	a2,a3,0x20
   10a4c:	02d13c23          	sd	a3,56(sp)
   10a50:	04d12223          	sw	a3,68(sp)
   10a54:	04c12423          	sw	a2,72(sp)
   10a58:	04412603          	lw	a2,68(sp)
   10a5c:	00167693          	and	a3,a2,1
   10a60:	de0686e3          	beqz	a3,1084c <_Z17intersect_bucketsRK23DualStreamingKernelArgs+0x508>
   10a64:	04013683          	ld	a3,64(sp)
   10a68:	00c12d07          	flw	fs10,12(sp)
   10a6c:	00712827          	fsw	ft7,16(sp)
   10a70:	0216d613          	srl	a2,a3,0x21
   10a74:	00767613          	and	a2,a2,7
   10a78:	0246d693          	srl	a3,a3,0x24
   10a7c:	00160613          	add	a2,a2,1
   10a80:	03069693          	sll	a3,a3,0x30
   10a84:	0306d693          	srl	a3,a3,0x30
   10a88:	00261e13          	sll	t3,a2,0x2
   10a8c:	00269693          	sll	a3,a3,0x2
   10a90:	00ce0e33          	add	t3,t3,a2
   10a94:	00d586b3          	add	a3,a1,a3
   10a98:	003e1e13          	sll	t3,t3,0x3
   10a9c:	00de0e33          	add	t3,t3,a3
   10aa0:	0206a207          	flw	ft4,32(a3)
   10aa4:	0146a907          	flw	fs2,20(a3)
   10aa8:	0186a287          	flw	ft5,24(a3)
   10aac:	01c6a307          	flw	ft6,28(a3)
   10ab0:	08497953          	fsub.s	fs2,fs2,ft4
   10ab4:	00c6a487          	flw	fs1,12(a3)
   10ab8:	0106a387          	flw	ft7,16(a3)
   10abc:	0046a807          	flw	fa6,4(a3)
   10ac0:	0854f4d3          	fsub.s	fs1,fs1,ft5
   10ac4:	0863f3d3          	fsub.s	ft7,ft7,ft6
   10ac8:	11a971d3          	fmul.s	ft3,fs2,fs10
   10acc:	08687853          	fsub.s	fa6,fa6,ft6
   10ad0:	0006a407          	flw	fs0,0(a3)
   10ad4:	1154f0d3          	fmul.s	ft1,fs1,fs5
   10ad8:	1163fa53          	fmul.s	fs4,ft7,fs6
   10adc:	1964f1c7          	fmsub.s	ft3,fs1,fs6,ft3
   10ae0:	08547453          	fsub.s	fs0,fs0,ft5
   10ae4:	0086a887          	flw	fa7,8(a3)
   10ae8:	09a3f0c7          	fmsub.s	ft1,ft7,fs10,ft1
   10aec:	a1597a47          	fmsub.s	fs4,fs2,fs5,fs4
   10af0:	10387153          	fmul.s	ft2,fa6,ft3
   10af4:	0848f8d3          	fsub.s	fa7,fa7,ft4
   10af8:	0866f353          	fsub.s	ft6,fa3,ft6
   10afc:	085772d3          	fsub.s	ft5,fa4,ft5
   10b00:	08467253          	fsub.s	ft4,fa2,ft4
   10b04:	11447143          	fmadd.s	ft2,fs0,fs4,ft2
   10b08:	1061f1d3          	fmul.s	ft3,ft3,ft6
   10b0c:	1058fbd3          	fmul.s	fs7,fa7,ft5
   10b10:	10487c53          	fmul.s	fs8,fa6,ft4
   10b14:	1018f143          	fmadd.s	ft2,fa7,ft1,ft2
   10b18:	10647cd3          	fmul.s	fs9,fs0,ft6
   10b1c:	185a71c3          	fmadd.s	ft3,fs4,ft5,ft3
   10b20:	b8447bc7          	fmsub.s	fs7,fs0,ft4,fs7
   10b24:	c068fc47          	fmsub.s	fs8,fa7,ft6,fs8
   10b28:	182df153          	fdiv.s	ft2,fs11,ft2
   10b2c:	c8587cc7          	fmsub.s	fs9,fa6,ft5,fs9
   10b30:	1840f0c3          	fmadd.s	ft1,ft1,ft4,ft3
   10b34:	115bf1d3          	fmul.s	ft3,fs7,fs5
   10b38:	f0000253          	fmv.w.x	ft4,zero
   10b3c:	19ac71c3          	fmadd.s	ft3,fs8,fs10,ft3
   10b40:	196cf1c3          	fmadd.s	ft3,fs9,fs6,ft3
   10b44:	101170d3          	fmul.s	ft1,ft2,ft1
   10b48:	103171d3          	fmul.s	ft3,ft2,ft3
   10b4c:	a0409653          	flt.s	a2,ft1,ft4
   10b50:	a01d9a53          	flt.s	s4,fs11,ft1
   10b54:	a0419ad3          	flt.s	s5,ft3,ft4
   10b58:	04061463          	bnez	a2,10ba0 <_Z17intersect_bucketsRK23DualStreamingKernelArgs+0x85c>
   10b5c:	0030f253          	fadd.s	ft4,ft1,ft3
   10b60:	040a1063          	bnez	s4,10ba0 <_Z17intersect_bucketsRK23DualStreamingKernelArgs+0x85c>
   10b64:	1173f3d3          	fmul.s	ft7,ft7,fs7
   10b68:	020a9c63          	bnez	s5,10ba0 <_Z17intersect_bucketsRK23DualStreamingKernelArgs+0x85c>
   10b6c:	a04d9653          	flt.s	a2,fs11,ft4
   10b70:	3984f4c3          	fmadd.s	fs1,fs1,fs8,ft7
   10b74:	02061663          	bnez	a2,10ba0 <_Z17intersect_bucketsRK23DualStreamingKernelArgs+0x85c>
   10b78:	49997943          	fmadd.s	fs2,fs2,fs9,fs1
   10b7c:	11217153          	fmul.s	ft2,ft2,fs2
   10b80:	a1311653          	flt.s	a2,ft2,fs3
   10b84:	a0279a53          	flt.s	s4,fa5,ft2
   10b88:	00061c63          	bnez	a2,10ba0 <_Z17intersect_bucketsRK23DualStreamingKernelArgs+0x85c>
   10b8c:	000a1a63          	bnez	s4,10ba0 <_Z17intersect_bucketsRK23DualStreamingKernelArgs+0x85c>
   10b90:	0246a383          	lw	t2,36(a3)
   10b94:	202107d3          	fmv.s	fa5,ft2
   10b98:	00312a27          	fsw	ft3,20(sp)
   10b9c:	00112c27          	fsw	ft1,24(sp)
   10ba0:	02868693          	add	a3,a3,40
   10ba4:	efc69ee3          	bne	a3,t3,10aa0 <_Z17intersect_bucketsRK23DualStreamingKernelArgs+0x75c>
   10ba8:	01012387          	flw	ft7,16(sp)
   10bac:	8a081ee3          	bnez	a6,10468 <_Z17intersect_bucketsRK23DualStreamingKernelArgs+0x124>
   10bb0:	8f1ff06f          	j	104a0 <_Z17intersect_bucketsRK23DualStreamingKernelArgs+0x15c>
   10bb4:	207381d3          	fmv.s	ft3,ft7
   10bb8:	de0612e3          	bnez	a2,1099c <_Z17intersect_bucketsRK23DualStreamingKernelArgs+0x658>
   10bbc:	080a8263          	beqz	s5,10c40 <_Z17intersect_bucketsRK23DualStreamingKernelArgs+0x8fc>
   10bc0:	a03116d3          	flt.s	a3,ft2,ft3
   10bc4:	10068863          	beqz	a3,10cd4 <_Z17intersect_bucketsRK23DualStreamingKernelArgs+0x990>
   10bc8:	a0f116d3          	flt.s	a3,ft2,fa5
   10bcc:	0e068263          	beqz	a3,10cb0 <_Z17intersect_bucketsRK23DualStreamingKernelArgs+0x96c>
   10bd0:	a0f196d3          	flt.s	a3,ft3,fa5
   10bd4:	0c068e63          	beqz	a3,10cb0 <_Z17intersect_bucketsRK23DualStreamingKernelArgs+0x96c>
   10bd8:	02089613          	sll	a2,a7,0x20
   10bdc:	01e65693          	srl	a3,a2,0x1e
   10be0:	4b068693          	add	a3,a3,1200
   10be4:	02010a93          	add	s5,sp,32
   10be8:	a0711653          	flt.s	a2,ft2,ft7
   10bec:	015686b3          	add	a3,a3,s5
   10bf0:	bc36a027          	fsw	ft3,-1088(a3)
   10bf4:	b986a023          	sw	s8,-1152(a3)
   10bf8:	207381d3          	fmv.s	ft3,ft7
   10bfc:	a0f396d3          	flt.s	a3,ft7,fa5
   10c00:	0018889b          	addw	a7,a7,1
   10c04:	de0606e3          	beqz	a2,109f0 <_Z17intersect_bucketsRK23DualStreamingKernelArgs+0x6ac>
   10c08:	06069263          	bnez	a3,10c6c <_Z17intersect_bucketsRK23DualStreamingKernelArgs+0x928>
   10c0c:	a0f116d3          	flt.s	a3,ft2,fa5
   10c10:	880686e3          	beqz	a3,1049c <_Z17intersect_bucketsRK23DualStreamingKernelArgs+0x158>
   10c14:	001a0693          	add	a3,s4,1
   10c18:	00669693          	sll	a3,a3,0x6
   10c1c:	00d586b3          	add	a3,a1,a3
   10c20:	0106b683          	ld	a3,16(a3)
   10c24:	4206d613          	sra	a2,a3,0x20
   10c28:	02d13423          	sd	a3,40(sp)
   10c2c:	04d12223          	sw	a3,68(sp)
   10c30:	04c12423          	sw	a2,72(sp)
   10c34:	e25ff06f          	j	10a58 <_Z17intersect_bucketsRK23DualStreamingKernelArgs+0x714>
   10c38:	20738153          	fmv.s	ft2,ft7
   10c3c:	cd5ff06f          	j	10910 <_Z17intersect_bucketsRK23DualStreamingKernelArgs+0x5cc>
   10c40:	a0f196d3          	flt.s	a3,ft3,fa5
   10c44:	a0311653          	flt.s	a2,ft2,ft3
   10c48:	fc0610e3          	bnez	a2,10c08 <_Z17intersect_bucketsRK23DualStreamingKernelArgs+0x8c4>
   10c4c:	d9dff06f          	j	109e8 <_Z17intersect_bucketsRK23DualStreamingKernelArgs+0x6a4>
   10c50:	a0f196d3          	flt.s	a3,ft3,fa5
   10c54:	d80684e3          	beqz	a3,109dc <_Z17intersect_bucketsRK23DualStreamingKernelArgs+0x698>
   10c58:	560a9663          	bnez	s5,111c4 <_Z17intersect_bucketsRK23DualStreamingKernelArgs+0xe80>
   10c5c:	a0f11653          	flt.s	a2,ft2,fa5
   10c60:	0a061e63          	bnez	a2,10d1c <_Z17intersect_bucketsRK23DualStreamingKernelArgs+0x9d8>
   10c64:	a0339653          	flt.s	a2,ft7,ft3
   10c68:	10060463          	beqz	a2,10d70 <_Z17intersect_bucketsRK23DualStreamingKernelArgs+0xa2c>
   10c6c:	020c1613          	sll	a2,s8,0x20
   10c70:	01a65693          	srl	a3,a2,0x1a
   10c74:	00d586b3          	add	a3,a1,a3
   10c78:	0506b603          	ld	a2,80(a3)
   10c7c:	02081a93          	sll	s5,a6,0x20
   10c80:	01cad693          	srl	a3,s5,0x1c
   10c84:	4b068693          	add	a3,a3,1200
   10c88:	02010a93          	add	s5,sp,32
   10c8c:	015686b3          	add	a3,a3,s5
   10c90:	42065a93          	sra	s5,a2,0x20
   10c94:	02c13023          	sd	a2,32(sp)
   10c98:	c036a027          	fsw	ft3,-1024(a3)
   10c9c:	c0c6a223          	sw	a2,-1020(a3)
   10ca0:	c156a423          	sw	s5,-1016(a3)
   10ca4:	c186a623          	sw	s8,-1012(a3)
   10ca8:	0018081b          	addw	a6,a6,1
   10cac:	f69ff06f          	j	10c14 <_Z17intersect_bucketsRK23DualStreamingKernelArgs+0x8d0>
   10cb0:	207381d3          	fmv.s	ft3,ft7
   10cb4:	000e0693          	mv	a3,t3
   10cb8:	f8dff06f          	j	10c44 <_Z17intersect_bucketsRK23DualStreamingKernelArgs+0x900>
   10cbc:	080a9463          	bnez	s5,10d44 <_Z17intersect_bucketsRK23DualStreamingKernelArgs+0xa00>
   10cc0:	a0339653          	flt.s	a2,ft7,ft3
   10cc4:	20738153          	fmv.s	ft2,ft7
   10cc8:	000b0893          	mv	a7,s6
   10ccc:	fa0610e3          	bnez	a2,10c6c <_Z17intersect_bucketsRK23DualStreamingKernelArgs+0x928>
   10cd0:	d19ff06f          	j	109e8 <_Z17intersect_bucketsRK23DualStreamingKernelArgs+0x6a4>
   10cd4:	a0f196d3          	flt.s	a3,ft3,fa5
   10cd8:	fc068ce3          	beqz	a3,10cb0 <_Z17intersect_bucketsRK23DualStreamingKernelArgs+0x96c>
   10cdc:	02089613          	sll	a2,a7,0x20
   10ce0:	01e65693          	srl	a3,a2,0x1e
   10ce4:	4b068693          	add	a3,a3,1200
   10ce8:	02010a93          	add	s5,sp,32
   10cec:	a0f11653          	flt.s	a2,ft2,fa5
   10cf0:	015686b3          	add	a3,a3,s5
   10cf4:	bc36a027          	fsw	ft3,-1088(a3)
   10cf8:	b986a023          	sw	s8,-1152(a3)
   10cfc:	0018889b          	addw	a7,a7,1
   10d00:	fa0608e3          	beqz	a2,10cb0 <_Z17intersect_bucketsRK23DualStreamingKernelArgs+0x96c>
   10d04:	a07116d3          	flt.s	a3,ft2,ft7
   10d08:	0a068463          	beqz	a3,10db0 <_Z17intersect_bucketsRK23DualStreamingKernelArgs+0xa6c>
   10d0c:	a0f396d3          	flt.s	a3,ft7,fa5
   10d10:	f00682e3          	beqz	a3,10c14 <_Z17intersect_bucketsRK23DualStreamingKernelArgs+0x8d0>
   10d14:	207381d3          	fmv.s	ft3,ft7
   10d18:	f55ff06f          	j	10c6c <_Z17intersect_bucketsRK23DualStreamingKernelArgs+0x928>
   10d1c:	02089a93          	sll	s5,a7,0x20
   10d20:	01ead613          	srl	a2,s5,0x1e
   10d24:	4b060613          	add	a2,a2,1200
   10d28:	02010a93          	add	s5,sp,32
   10d2c:	01560633          	add	a2,a2,s5
   10d30:	bc262027          	fsw	ft2,-1088(a2)
   10d34:	0018889b          	addw	a7,a7,1
   10d38:	20738153          	fmv.s	ft2,ft7
   10d3c:	b9462023          	sw	s4,-1152(a2)
   10d40:	f05ff06f          	j	10c44 <_Z17intersect_bucketsRK23DualStreamingKernelArgs+0x900>
   10d44:	02061693          	sll	a3,a2,0x20
   10d48:	01e6d613          	srl	a2,a3,0x1e
   10d4c:	4b060693          	add	a3,a2,1200
   10d50:	02010613          	add	a2,sp,32
   10d54:	00c68633          	add	a2,a3,a2
   10d58:	20738153          	fmv.s	ft2,ft7
   10d5c:	a0f396d3          	flt.s	a3,ft7,fa5
   10d60:	bc362027          	fsw	ft3,-1088(a2)
   10d64:	0028889b          	addw	a7,a7,2
   10d68:	b9862023          	sw	s8,-1152(a2)
   10d6c:	c7dff06f          	j	109e8 <_Z17intersect_bucketsRK23DualStreamingKernelArgs+0x6a4>
   10d70:	a0f39653          	flt.s	a2,ft7,fa5
   10d74:	cc0600e3          	beqz	a2,10a34 <_Z17intersect_bucketsRK23DualStreamingKernelArgs+0x6f0>
   10d78:	20738153          	fmv.s	ft2,ft7
   10d7c:	c75ff06f          	j	109f0 <_Z17intersect_bucketsRK23DualStreamingKernelArgs+0x6ac>
   10d80:	207385d3          	fmv.s	fa1,ft7
   10d84:	f2938c63          	beq	t2,s1,104bc <_Z17intersect_bucketsRK23DualStreamingKernelArgs+0x178>
   10d88:	07053683          	ld	a3,112(a0)
   10d8c:	02041613          	sll	a2,s0,0x20
   10d90:	01c65413          	srl	s0,a2,0x1c
   10d94:	01812807          	flw	fa6,24(sp)
   10d98:	01412887          	flw	fa7,20(sp)
   10d9c:	f0038953          	fmv.w.x	fs2,t2
   10da0:	008686b3          	add	a3,a3,s0
   10da4:	00f6b00b          	cshit	fa5,0(a3)
   10da8:	20f785d3          	fmv.s	fa1,fa5
   10dac:	f10ff06f          	j	104bc <_Z17intersect_bucketsRK23DualStreamingKernelArgs+0x178>
   10db0:	a0f396d3          	flt.s	a3,ft7,fa5
   10db4:	c3dff06f          	j	109f0 <_Z17intersect_bucketsRK23DualStreamingKernelArgs+0x6ac>
   10db8:	fff8859b          	addw	a1,a7,-1
   10dbc:	02059693          	sll	a3,a1,0x20
   10dc0:	01e6d593          	srl	a1,a3,0x1e
   10dc4:	09010613          	add	a2,sp,144
   10dc8:	00be86b3          	add	a3,t4,a1
   10dcc:	20b583d3          	fmv.s	ft7,fa1
   10dd0:	20c60153          	fmv.s	ft2,fa2
   10dd4:	213981d3          	fmv.s	ft3,fs3
   10dd8:	21ad0253          	fmv.s	ft4,fs10
   10ddc:	215a82d3          	fmv.s	ft5,fs5
   10de0:	216b0353          	fmv.s	ft6,fs6
   10de4:	411988bb          	subw	a7,s3,a7
   10de8:	00b605b3          	add	a1,a2,a1
   10dec:	0440006f          	j	10e30 <_Z17intersect_bucketsRK23DualStreamingKernelArgs+0xaec>
   10df0:	040f0863          	beqz	t5,10e40 <_Z17intersect_bucketsRK23DualStreamingKernelArgs+0xafc>
   10df4:	0005a607          	flw	fa2,0(a1)
   10df8:	000e0813          	mv	a6,t3
   10dfc:	01066633          	or	a2,a2,a6
   10e00:	a0f61853          	flt.s	a6,fa2,fa5
   10e04:	20e70053          	fmv.s	ft0,fa4
   10e08:	20d680d3          	fmv.s	ft1,fa3
   10e0c:	00080863          	beqz	a6,10e1c <_Z17intersect_bucketsRK23DualStreamingKernelArgs+0xad8>
   10e10:	f0078453          	fmv.w.x	fs0,a5
   10e14:	f00604d3          	fmv.w.x	fs1,a2
   10e18:	1000200b          	swi	ft0,256(zero) # 100 <main-0xffb0>
   10e1c:	ffc68613          	add	a2,a3,-4
   10e20:	0018889b          	addw	a7,a7,1
   10e24:	ffc58593          	add	a1,a1,-4
   10e28:	96de82e3          	beq	t4,a3,1078c <_Z17intersect_bucketsRK23DualStreamingKernelArgs+0x448>
   10e2c:	00060693          	mv	a3,a2
   10e30:	011f983b          	sllw	a6,t6,a7
   10e34:	0006a603          	lw	a2,0(a3)
   10e38:	01081e1b          	sllw	t3,a6,0x10
   10e3c:	fa071ae3          	bnez	a4,10df0 <_Z17intersect_bucketsRK23DualStreamingKernelArgs+0xaac>
   10e40:	20e70053          	fmv.s	ft0,fa4
   10e44:	20d680d3          	fmv.s	ft1,fa3
   10e48:	01c66633          	or	a2,a2,t3
   10e4c:	fc5ff06f          	j	10e10 <_Z17intersect_bucketsRK23DualStreamingKernelArgs+0xacc>
   10e50:	300f1263          	bnez	t5,11154 <_Z17intersect_bucketsRK23DualStreamingKernelArgs+0xe10>
   10e54:	fff8869b          	addw	a3,a7,-1
   10e58:	02069593          	sll	a1,a3,0x20
   10e5c:	01e5d613          	srl	a2,a1,0x1e
   10e60:	4b060613          	add	a2,a2,1200
   10e64:	02010593          	add	a1,sp,32
   10e68:	00b60633          	add	a2,a2,a1
   10e6c:	b8062603          	lw	a2,-1152(a2)
   10e70:	20e70053          	fmv.s	ft0,fa4
   10e74:	20d680d3          	fmv.s	ft1,fa3
   10e78:	00566633          	or	a2,a2,t0
   10e7c:	20c60153          	fmv.s	ft2,fa2
   10e80:	213981d3          	fmv.s	ft3,fs3
   10e84:	21ad0253          	fmv.s	ft4,fs10
   10e88:	215a82d3          	fmv.s	ft5,fs5
   10e8c:	216b0353          	fmv.s	ft6,fs6
   10e90:	20b583d3          	fmv.s	ft7,fa1
   10e94:	f0078453          	fmv.w.x	fs0,a5
   10e98:	f00604d3          	fmv.w.x	fs1,a2
   10e9c:	1000200b          	swi	ft0,256(zero) # 100 <main-0xffb0>
   10ea0:	8e0686e3          	beqz	a3,1078c <_Z17intersect_bucketsRK23DualStreamingKernelArgs+0x448>
   10ea4:	ffe8869b          	addw	a3,a7,-2
   10ea8:	02069593          	sll	a1,a3,0x20
   10eac:	01e5d613          	srl	a2,a1,0x1e
   10eb0:	4b060613          	add	a2,a2,1200
   10eb4:	02010593          	add	a1,sp,32
   10eb8:	00b60633          	add	a2,a2,a1
   10ebc:	b8062603          	lw	a2,-1152(a2)
   10ec0:	00566633          	or	a2,a2,t0
   10ec4:	f00604d3          	fmv.w.x	fs1,a2
   10ec8:	1000200b          	swi	ft0,256(zero) # 100 <main-0xffb0>
   10ecc:	8c0680e3          	beqz	a3,1078c <_Z17intersect_bucketsRK23DualStreamingKernelArgs+0x448>
   10ed0:	ffd8869b          	addw	a3,a7,-3
   10ed4:	02069593          	sll	a1,a3,0x20
   10ed8:	01e5d613          	srl	a2,a1,0x1e
   10edc:	4b060613          	add	a2,a2,1200
   10ee0:	02010593          	add	a1,sp,32
   10ee4:	00b60633          	add	a2,a2,a1
   10ee8:	b8062603          	lw	a2,-1152(a2)
   10eec:	00566633          	or	a2,a2,t0
   10ef0:	f00604d3          	fmv.w.x	fs1,a2
   10ef4:	1000200b          	swi	ft0,256(zero) # 100 <main-0xffb0>
   10ef8:	88068ae3          	beqz	a3,1078c <_Z17intersect_bucketsRK23DualStreamingKernelArgs+0x448>
   10efc:	ffc8869b          	addw	a3,a7,-4
   10f00:	02069593          	sll	a1,a3,0x20
   10f04:	01e5d613          	srl	a2,a1,0x1e
   10f08:	4b060613          	add	a2,a2,1200
   10f0c:	02010593          	add	a1,sp,32
   10f10:	00b60633          	add	a2,a2,a1
   10f14:	b8062603          	lw	a2,-1152(a2)
   10f18:	00566633          	or	a2,a2,t0
   10f1c:	f00604d3          	fmv.w.x	fs1,a2
   10f20:	1000200b          	swi	ft0,256(zero) # 100 <main-0xffb0>
   10f24:	860684e3          	beqz	a3,1078c <_Z17intersect_bucketsRK23DualStreamingKernelArgs+0x448>
   10f28:	ffb8869b          	addw	a3,a7,-5
   10f2c:	02069593          	sll	a1,a3,0x20
   10f30:	01e5d613          	srl	a2,a1,0x1e
   10f34:	4b060613          	add	a2,a2,1200
   10f38:	02010593          	add	a1,sp,32
   10f3c:	00b60633          	add	a2,a2,a1
   10f40:	b8062603          	lw	a2,-1152(a2)
   10f44:	00566633          	or	a2,a2,t0
   10f48:	f00604d3          	fmv.w.x	fs1,a2
   10f4c:	1000200b          	swi	ft0,256(zero) # 100 <main-0xffb0>
   10f50:	82068ee3          	beqz	a3,1078c <_Z17intersect_bucketsRK23DualStreamingKernelArgs+0x448>
   10f54:	ffa8869b          	addw	a3,a7,-6
   10f58:	02069593          	sll	a1,a3,0x20
   10f5c:	01e5d613          	srl	a2,a1,0x1e
   10f60:	4b060613          	add	a2,a2,1200
   10f64:	02010593          	add	a1,sp,32
   10f68:	00b60633          	add	a2,a2,a1
   10f6c:	b8062603          	lw	a2,-1152(a2)
   10f70:	00566633          	or	a2,a2,t0
   10f74:	f00604d3          	fmv.w.x	fs1,a2
   10f78:	1000200b          	swi	ft0,256(zero) # 100 <main-0xffb0>
   10f7c:	800688e3          	beqz	a3,1078c <_Z17intersect_bucketsRK23DualStreamingKernelArgs+0x448>
   10f80:	ff98861b          	addw	a2,a7,-7
   10f84:	02061593          	sll	a1,a2,0x20
   10f88:	01e5d693          	srl	a3,a1,0x1e
   10f8c:	4b068693          	add	a3,a3,1200
   10f90:	02010593          	add	a1,sp,32
   10f94:	00b686b3          	add	a3,a3,a1
   10f98:	b806a583          	lw	a1,-1152(a3)
   10f9c:	000106b7          	lui	a3,0x10
   10fa0:	00d5e5b3          	or	a1,a1,a3
   10fa4:	f00584d3          	fmv.w.x	fs1,a1
   10fa8:	1000200b          	swi	ft0,256(zero) # 100 <main-0xffb0>
   10fac:	fe060063          	beqz	a2,1078c <_Z17intersect_bucketsRK23DualStreamingKernelArgs+0x448>
   10fb0:	ff88879b          	addw	a5,a7,-8
   10fb4:	02079593          	sll	a1,a5,0x20
   10fb8:	01e5d613          	srl	a2,a1,0x1e
   10fbc:	4b060613          	add	a2,a2,1200
   10fc0:	02010593          	add	a1,sp,32
   10fc4:	00b60633          	add	a2,a2,a1
   10fc8:	b8062603          	lw	a2,-1152(a2)
   10fcc:	00d66633          	or	a2,a2,a3
   10fd0:	f00604d3          	fmv.w.x	fs1,a2
   10fd4:	1000200b          	swi	ft0,256(zero) # 100 <main-0xffb0>
   10fd8:	fa078a63          	beqz	a5,1078c <_Z17intersect_bucketsRK23DualStreamingKernelArgs+0x448>
   10fdc:	ff78879b          	addw	a5,a7,-9
   10fe0:	02079593          	sll	a1,a5,0x20
   10fe4:	01e5d613          	srl	a2,a1,0x1e
   10fe8:	4b060613          	add	a2,a2,1200
   10fec:	02010593          	add	a1,sp,32
   10ff0:	00b60633          	add	a2,a2,a1
   10ff4:	b8062603          	lw	a2,-1152(a2)
   10ff8:	00d66633          	or	a2,a2,a3
   10ffc:	f00604d3          	fmv.w.x	fs1,a2
   11000:	1000200b          	swi	ft0,256(zero) # 100 <main-0xffb0>
   11004:	f8078463          	beqz	a5,1078c <_Z17intersect_bucketsRK23DualStreamingKernelArgs+0x448>
   11008:	ff68879b          	addw	a5,a7,-10
   1100c:	02079593          	sll	a1,a5,0x20
   11010:	01e5d613          	srl	a2,a1,0x1e
   11014:	4b060613          	add	a2,a2,1200
   11018:	02010593          	add	a1,sp,32
   1101c:	00b60633          	add	a2,a2,a1
   11020:	b8062603          	lw	a2,-1152(a2)
   11024:	00d66633          	or	a2,a2,a3
   11028:	f00604d3          	fmv.w.x	fs1,a2
   1102c:	1000200b          	swi	ft0,256(zero) # 100 <main-0xffb0>
   11030:	f4078e63          	beqz	a5,1078c <_Z17intersect_bucketsRK23DualStreamingKernelArgs+0x448>
   11034:	ff58879b          	addw	a5,a7,-11
   11038:	02079593          	sll	a1,a5,0x20
   1103c:	01e5d613          	srl	a2,a1,0x1e
   11040:	4b060613          	add	a2,a2,1200
   11044:	02010593          	add	a1,sp,32
   11048:	00b60633          	add	a2,a2,a1
   1104c:	b8062603          	lw	a2,-1152(a2)
   11050:	00d66633          	or	a2,a2,a3
   11054:	f00604d3          	fmv.w.x	fs1,a2
   11058:	1000200b          	swi	ft0,256(zero) # 100 <main-0xffb0>
   1105c:	f2078863          	beqz	a5,1078c <_Z17intersect_bucketsRK23DualStreamingKernelArgs+0x448>
   11060:	ff48879b          	addw	a5,a7,-12
   11064:	02079593          	sll	a1,a5,0x20
   11068:	01e5d613          	srl	a2,a1,0x1e
   1106c:	4b060613          	add	a2,a2,1200
   11070:	02010593          	add	a1,sp,32
   11074:	00b60633          	add	a2,a2,a1
   11078:	b8062603          	lw	a2,-1152(a2)
   1107c:	00d66633          	or	a2,a2,a3
   11080:	f00604d3          	fmv.w.x	fs1,a2
   11084:	1000200b          	swi	ft0,256(zero) # 100 <main-0xffb0>
   11088:	f0078263          	beqz	a5,1078c <_Z17intersect_bucketsRK23DualStreamingKernelArgs+0x448>
   1108c:	ff38879b          	addw	a5,a7,-13
   11090:	02079593          	sll	a1,a5,0x20
   11094:	01e5d613          	srl	a2,a1,0x1e
   11098:	4b060613          	add	a2,a2,1200
   1109c:	02010593          	add	a1,sp,32
   110a0:	00b60633          	add	a2,a2,a1
   110a4:	b8062603          	lw	a2,-1152(a2)
   110a8:	00d66633          	or	a2,a2,a3
   110ac:	f00604d3          	fmv.w.x	fs1,a2
   110b0:	1000200b          	swi	ft0,256(zero) # 100 <main-0xffb0>
   110b4:	ec078c63          	beqz	a5,1078c <_Z17intersect_bucketsRK23DualStreamingKernelArgs+0x448>
   110b8:	ff28879b          	addw	a5,a7,-14
   110bc:	02079593          	sll	a1,a5,0x20
   110c0:	01e5d613          	srl	a2,a1,0x1e
   110c4:	4b060613          	add	a2,a2,1200
   110c8:	02010593          	add	a1,sp,32
   110cc:	00b60633          	add	a2,a2,a1
   110d0:	b8062603          	lw	a2,-1152(a2)
   110d4:	00d66633          	or	a2,a2,a3
   110d8:	f00604d3          	fmv.w.x	fs1,a2
   110dc:	1000200b          	swi	ft0,256(zero) # 100 <main-0xffb0>
   110e0:	ea078663          	beqz	a5,1078c <_Z17intersect_bucketsRK23DualStreamingKernelArgs+0x448>
   110e4:	ff18879b          	addw	a5,a7,-15
   110e8:	02079593          	sll	a1,a5,0x20
   110ec:	01e5d613          	srl	a2,a1,0x1e
   110f0:	4b060613          	add	a2,a2,1200
   110f4:	02010593          	add	a1,sp,32
   110f8:	00b60633          	add	a2,a2,a1
   110fc:	b8062603          	lw	a2,-1152(a2)
   11100:	00d66633          	or	a2,a2,a3
   11104:	f00604d3          	fmv.w.x	fs1,a2
   11108:	1000200b          	swi	ft0,256(zero) # 100 <main-0xffb0>
   1110c:	e8078063          	beqz	a5,1078c <_Z17intersect_bucketsRK23DualStreamingKernelArgs+0x448>
   11110:	ff08879b          	addw	a5,a7,-16
   11114:	02079613          	sll	a2,a5,0x20
   11118:	01e65793          	srl	a5,a2,0x1e
   1111c:	4b078793          	add	a5,a5,1200
   11120:	00b787b3          	add	a5,a5,a1
   11124:	b807a783          	lw	a5,-1152(a5)
   11128:	00d7e7b3          	or	a5,a5,a3
   1112c:	f00784d3          	fmv.w.x	fs1,a5
   11130:	1000200b          	swi	ft0,256(zero) # 100 <main-0xffb0>
   11134:	e58ff06f          	j	1078c <_Z17intersect_bucketsRK23DualStreamingKernelArgs+0x448>
   11138:	00064e0b          	lhit	ft8,0(a2)
   1113c:	e00f83d3          	fmv.x.w	t2,ft11
   11140:	21ce07d3          	fmv.s	fa5,ft8
   11144:	01d12c27          	fsw	ft9,24(sp)
   11148:	01e12a27          	fsw	ft10,20(sp)
   1114c:	0003839b          	sext.w	t2,t2
   11150:	accff06f          	j	1041c <_Z17intersect_bucketsRK23DualStreamingKernelArgs+0xd8>
   11154:	fff8869b          	addw	a3,a7,-1
   11158:	02069613          	sll	a2,a3,0x20
   1115c:	01e65693          	srl	a3,a2,0x1e
   11160:	09010593          	add	a1,sp,144
   11164:	00de8633          	add	a2,t4,a3
   11168:	20b583d3          	fmv.s	ft7,fa1
   1116c:	21ad0253          	fmv.s	ft4,fs10
   11170:	215a82d3          	fmv.s	ft5,fs5
   11174:	216b0353          	fmv.s	ft6,fs6
   11178:	00d586b3          	add	a3,a1,a3
   1117c:	0080006f          	j	11184 <_Z17intersect_bucketsRK23DualStreamingKernelArgs+0xe40>
   11180:	00058613          	mv	a2,a1
   11184:	0006a507          	flw	fa0,0(a3) # 10000 <main-0xb0>
   11188:	20e70053          	fmv.s	ft0,fa4
   1118c:	20d680d3          	fmv.s	ft1,fa3
   11190:	a0f515d3          	flt.s	a1,fa0,fa5
   11194:	20c60153          	fmv.s	ft2,fa2
   11198:	213981d3          	fmv.s	ft3,fs3
   1119c:	00058c63          	beqz	a1,111b4 <_Z17intersect_bucketsRK23DualStreamingKernelArgs+0xe70>
   111a0:	00062583          	lw	a1,0(a2)
   111a4:	f0078453          	fmv.w.x	fs0,a5
   111a8:	0055e5b3          	or	a1,a1,t0
   111ac:	f00584d3          	fmv.w.x	fs1,a1
   111b0:	1000200b          	swi	ft0,256(zero) # 100 <main-0xffb0>
   111b4:	ffc60593          	add	a1,a2,-4
   111b8:	ffc68693          	add	a3,a3,-4
   111bc:	fcce92e3          	bne	t4,a2,11180 <_Z17intersect_bucketsRK23DualStreamingKernelArgs+0xe3c>
   111c0:	dccff06f          	j	1078c <_Z17intersect_bucketsRK23DualStreamingKernelArgs+0x448>
   111c4:	02089693          	sll	a3,a7,0x20
   111c8:	01e6d613          	srl	a2,a3,0x1e
   111cc:	4b060693          	add	a3,a2,1200
   111d0:	a0f11ad3          	flt.s	s5,ft2,fa5
   111d4:	02010613          	add	a2,sp,32
   111d8:	00c68633          	add	a2,a3,a2
   111dc:	bc362027          	fsw	ft3,-1088(a2)
   111e0:	0018869b          	addw	a3,a7,1
   111e4:	b9862023          	sw	s8,-1152(a2)
   111e8:	00068b1b          	sext.w	s6,a3
   111ec:	000a9a63          	bnez	s5,11200 <_Z17intersect_bucketsRK23DualStreamingKernelArgs+0xebc>
   111f0:	20738153          	fmv.s	ft2,ft7
   111f4:	a0f396d3          	flt.s	a3,ft7,fa5
   111f8:	000b0893          	mv	a7,s6
   111fc:	fecff06f          	j	109e8 <_Z17intersect_bucketsRK23DualStreamingKernelArgs+0x6a4>
   11200:	02069613          	sll	a2,a3,0x20
   11204:	01e65693          	srl	a3,a2,0x1e
   11208:	4b068693          	add	a3,a3,1200
   1120c:	02010613          	add	a2,sp,32
   11210:	00c68633          	add	a2,a3,a2
   11214:	bc262027          	fsw	ft2,-1088(a2)
   11218:	a0f396d3          	flt.s	a3,ft7,fa5
   1121c:	20738153          	fmv.s	ft2,ft7
   11220:	0028889b          	addw	a7,a7,2
   11224:	b9462023          	sw	s4,-1152(a2)
   11228:	fc0ff06f          	j	109e8 <_Z17intersect_bucketsRK23DualStreamingKernelArgs+0x6a4>
