
./riscv/kernel:     file format elf64-littleriscv
./riscv/kernel
architecture: riscv:rv64, flags 0x00000112:
EXEC_P, HAS_SYMS, D_PAGED
start address 0x00000000000100e8

Program Header:
0x70000003 off    0x00000000000013cb vaddr 0x0000000000000000 paddr 0x0000000000000000 align 2**0
         filesz 0x0000000000000050 memsz 0x0000000000000000 flags r--
    LOAD off    0x0000000000000000 vaddr 0x0000000000010000 paddr 0x0000000000010000 align 2**12
         filesz 0x00000000000013b0 memsz 0x00000000000013b0 flags r-x
   STACK off    0x0000000000000000 vaddr 0x0000000000000000 paddr 0x0000000000000000 align 2**4
         filesz 0x0000000000000000 memsz 0x0000000000000000 flags rw-

Sections:
Idx Name          Size      VMA               LMA               File off  Algn
  0 .text         00000260  00000000000100e8  00000000000100e8  000000e8  2**2
                  CONTENTS, ALLOC, LOAD, READONLY, CODE
  1 .eh_frame     00000054  0000000000010348  0000000000010348  00000348  2**3
                  CONTENTS, ALLOC, LOAD, READONLY, DATA
  2 .sdata        00000014  000000000001139c  000000000001139c  0000139c  2**2
                  CONTENTS, ALLOC, LOAD, READONLY, DATA
  3 .comment      0000001b  0000000000000000  0000000000000000  000013b0  2**0
                  CONTENTS, READONLY
  4 .riscv.attributes 00000050  0000000000000000  0000000000000000  000013cb  2**0
                  CONTENTS, READONLY
SYMBOL TABLE:
00000000000100e8 l    d  .text	0000000000000000 .text
0000000000010348 l    d  .eh_frame	0000000000000000 .eh_frame
000000000001139c l    d  .sdata	0000000000000000 .sdata
0000000000000000 l    d  .comment	0000000000000000 .comment
0000000000000000 l    d  .riscv.attributes	0000000000000000 .riscv.attributes
0000000000000000 l    df *ABS*	0000000000000000 main.cpp
0000000000011b9c g       *ABS*	0000000000000000 __global_pointer$
000000000001139c g       .sdata	0000000000000000 __SDATA_BEGIN__
00000000000113b0 g       .sdata	0000000000000000 __BSS_END__
00000000000113b0 g       .sdata	0000000000000000 __bss_start
00000000000100e8 g     F .text	0000000000000260 main
000000000001139c g       .sdata	0000000000000000 __DATA_BEGIN__
00000000000113b0 g       .sdata	0000000000000000 _edata
00000000000113b0 g       .sdata	0000000000000000 _end



Disassembly of section .text:

00000000000100e8 <main>:
   100e8:	0000078b          	fchthrd	a5
   100ec:	10802703          	lw	a4,264(zero) # 108 <main-0xffe0>
   100f0:	11c02683          	lw	a3,284(zero) # 11c <main-0xffcc>
   100f4:	0007879b          	sext.w	a5,a5
   100f8:	00d7063b          	addw	a2,a4,a3
   100fc:	24c7f263          	bgeu	a5,a2,10340 <main+0x258>
   10100:	f7010113          	addi	sp,sp,-144
   10104:	00011637          	lui	a2,0x11
   10108:	00011837          	lui	a6,0x11
   1010c:	00011537          	lui	a0,0x11
   10110:	09212227          	fsw	fs2,132(sp)
   10114:	3a062907          	flw	fs2,928(a2) # 113a0 <__DATA_BEGIN__+0x4>
   10118:	00011337          	lui	t1,0x11
   1011c:	000118b7          	lui	a7,0x11
   10120:	3a882807          	flw	fa6,936(a6) # 113a8 <__DATA_BEGIN__+0xc>
   10124:	09312027          	fsw	fs3,128(sp)
   10128:	fff00813          	li	a6,-1
   1012c:	39c52987          	flw	fs3,924(a0) # 1139c <__DATA_BEGIN__>
   10130:	03f10593          	addi	a1,sp,63
   10134:	04000537          	lui	a0,0x4000
   10138:	3ac32587          	flw	fa1,940(t1) # 113ac <__DATA_BEGIN__+0x10>
   1013c:	3a48a887          	flw	fa7,932(a7) # 113a4 <__DATA_BEGIN__+0x8>
   10140:	08812627          	fsw	fs0,140(sp)
   10144:	08912427          	fsw	fs1,136(sp)
   10148:	07b12e27          	fsw	fs11,124(sp)
   1014c:	fc05f593          	andi	a1,a1,-64
   10150:	03481893          	slli	a7,a6,0x34
   10154:	01050533          	add	a0,a0,a6
   10158:	ff000337          	lui	t1,0xff000
   1015c:	06d7e863          	bltu	a5,a3,101cc <main+0xe4>
   10160:	00e7b733          	sltu	a4,a5,a4
   10164:	00173713          	seqz	a4,a4
   10168:	0047171b          	slliw	a4,a4,0x4
   1016c:	00074d8b          	lhit	fs11,0(a4)
   10170:	e00f06d3          	fmv.x.w	a3,ft10
   10174:	e00f8753          	fmv.x.w	a4,ft11
   10178:	ff000637          	lui	a2,0xff000
   1017c:	0006869b          	sext.w	a3,a3
   10180:	0007071b          	sext.w	a4,a4
   10184:	03068863          	beq	a3,a6,101b4 <main+0xcc>
   10188:	00a6961b          	slliw	a2,a3,0xa
   1018c:	00d6063b          	addw	a2,a2,a3
   10190:	0066569b          	srliw	a3,a2,0x6
   10194:	00c6c6b3          	xor	a3,a3,a2
   10198:	0036961b          	slliw	a2,a3,0x3
   1019c:	00d6063b          	addw	a2,a2,a3
   101a0:	00b6569b          	srliw	a3,a2,0xb
   101a4:	00c6c6b3          	xor	a3,a3,a2
   101a8:	00f6961b          	slliw	a2,a3,0xf
   101ac:	00d6063b          	addw	a2,a2,a3
   101b0:	00666633          	or	a2,a2,t1
   101b4:	11003683          	ld	a3,272(zero) # 110 <main-0xffd8>
   101b8:	02071e13          	slli	t3,a4,0x20
   101bc:	01ee5713          	srli	a4,t3,0x1e
   101c0:	00e68733          	add	a4,a3,a4
   101c4:	00c72023          	sw	a2,0(a4)
   101c8:	10802703          	lw	a4,264(zero) # 108 <main-0xffe0>
   101cc:	08e7fa63          	bgeu	a5,a4,10260 <main+0x178>
   101d0:	12004703          	lbu	a4,288(zero) # 120 <main-0xffc8>
   101d4:	0c070063          	beqz	a4,10294 <main+0x1ac>
   101d8:	17003703          	ld	a4,368(zero) # 170 <main-0xff78>
   101dc:	02079e13          	slli	t3,a5,0x20
   101e0:	0305b683          	ld	a3,48(a1)
   101e4:	00a7f633          	and	a2,a5,a0
   101e8:	01be5793          	srli	a5,t3,0x1b
   101ec:	00f707b3          	add	a5,a4,a5
   101f0:	01c7a187          	flw	ft3,28(a5)
   101f4:	00c7a787          	flw	fa5,12(a5)
   101f8:	02061613          	slli	a2,a2,0x20
   101fc:	02065613          	srli	a2,a2,0x20
   10200:	0116f733          	and	a4,a3,a7
   10204:	00c76733          	or	a4,a4,a2
   10208:	02e5b823          	sd	a4,48(a1)
   1020c:	a037a753          	feq.s	a4,fa5,ft3
   10210:	0007a007          	flw	ft0,0(a5)
   10214:	0047a087          	flw	ft1,4(a5)
   10218:	0087a107          	flw	ft2,8(a5)
   1021c:	0107a207          	flw	ft4,16(a5)
   10220:	0147a287          	flw	ft5,20(a5)
   10224:	0187a307          	flw	ft6,24(a5)
   10228:	203183d3          	fmv.s	ft7,ft3
   1022c:	fff00793          	li	a5,-1
   10230:	10070263          	beqz	a4,10334 <main+0x24c>
   10234:	f00004d3          	fmv.w.x	fs1,zero
   10238:	00078713          	mv	a4,a5
   1023c:	0207d793          	srli	a5,a5,0x20
   10240:	20948553          	fmv.s	fa0,fs1
   10244:	f0070753          	fmv.w.x	fa4,a4
   10248:	f00787d3          	fmv.w.x	fa5,a5
   1024c:	20738453          	fmv.s	fs0,ft7
   10250:	0305a607          	flw	fa2,48(a1)
   10254:	0345a687          	flw	fa3,52(a1)
   10258:	1000200b          	swi	ft0,256(zero) # 100 <main-0xffe8>
   1025c:	10802703          	lw	a4,264(zero) # 108 <main-0xffe0>
   10260:	0000078b          	fchthrd	a5
   10264:	11c02683          	lw	a3,284(zero) # 11c <main-0xffcc>
   10268:	0007879b          	sext.w	a5,a5
   1026c:	00e6863b          	addw	a2,a3,a4
   10270:	eec7e6e3          	bltu	a5,a2,1015c <main+0x74>
   10274:	08c12407          	flw	fs0,140(sp)
   10278:	08812487          	flw	fs1,136(sp)
   1027c:	08412907          	flw	fs2,132(sp)
   10280:	08012987          	flw	fs3,128(sp)
   10284:	07c12d87          	flw	fs11,124(sp)
   10288:	00000513          	li	a0,0
   1028c:	09010113          	addi	sp,sp,144
   10290:	00008067          	ret
   10294:	10002683          	lw	a3,256(zero) # 100 <main-0xffe8>
   10298:	12802f87          	flw	ft11,296(zero) # 128 <main-0xffc0>
   1029c:	15c02307          	flw	ft6,348(zero) # 15c <main-0xff8c>
   102a0:	02d7fe3b          	remuw	t3,a5,a3
   102a4:	14002707          	flw	fa4,320(zero) # 140 <main-0xffa8>
   102a8:	14402e07          	flw	ft8,324(zero) # 144 <main-0xffa4>
   102ac:	13c02687          	flw	fa3,316(zero) # 13c <main-0xffac>
   102b0:	15402f07          	flw	ft10,340(zero) # 154 <main-0xff94>
   102b4:	15802e87          	flw	ft9,344(zero) # 158 <main-0xff90>
   102b8:	12c02507          	flw	fa0,300(zero) # 12c <main-0xffbc>
   102bc:	0305b703          	ld	a4,48(a1)
   102c0:	00a7f633          	and	a2,a5,a0
   102c4:	14802207          	flw	ft4,328(zero) # 148 <main-0xffa0>
   102c8:	14c02287          	flw	ft5,332(zero) # 14c <main-0xff9c>
   102cc:	15002607          	flw	fa2,336(zero) # 150 <main-0xff98>
   102d0:	02061613          	slli	a2,a2,0x20
   102d4:	02065613          	srli	a2,a2,0x20
   102d8:	01177733          	and	a4,a4,a7
   102dc:	00c76733          	or	a4,a4,a2
   102e0:	13002007          	flw	ft0,304(zero) # 130 <main-0xffb8>
   102e4:	13402087          	flw	ft1,308(zero) # 134 <main-0xffb4>
   102e8:	13802107          	flw	ft2,312(zero) # 138 <main-0xffb0>
   102ec:	213983d3          	fmv.s	ft7,fs3
   102f0:	212901d3          	fmv.s	ft3,fs2
   102f4:	02e5b823          	sd	a4,48(a1)
   102f8:	02d7d6bb          	divuw	a3,a5,a3
   102fc:	d01e77d3          	fcvt.s.wu	fa5,t3
   10300:	00000793          	li	a5,0
   10304:	0117f7d3          	fadd.s	fa5,fa5,fa7
   10308:	81f7f7c3          	fmadd.s	fa5,fa5,ft11,fa6
   1030c:	f0d7f6c7          	fmsub.s	fa3,fa5,fa3,ft10
   10310:	e8e7f747          	fmsub.s	fa4,fa5,fa4,ft9
   10314:	31c7f7c7          	fmsub.s	fa5,fa5,ft8,ft6
   10318:	d016f353          	fcvt.s.wu	ft6,a3
   1031c:	01137353          	fadd.s	ft6,ft6,fa7
   10320:	80a37343          	fmadd.s	ft6,ft6,fa0,fa6
   10324:	68437243          	fmadd.s	ft4,ft6,ft4,fa3
   10328:	705372c3          	fmadd.s	ft5,ft6,ft5,fa4
   1032c:	78c37343          	fmadd.s	ft6,ft6,fa2,fa5
   10330:	f05ff06f          	j	10234 <main+0x14c>
   10334:	20f781d3          	fmv.s	ft3,fa5
   10338:	00000793          	li	a5,0
   1033c:	ef9ff06f          	j	10234 <main+0x14c>
   10340:	00000513          	li	a0,0
   10344:	00008067          	ret
