
./riscv/kernel:     file format elf64-littleriscv
./riscv/kernel
architecture: riscv:rv64, flags 0x00000112:
EXEC_P, HAS_SYMS, D_PAGED
start address 0x00000000000100e8

Program Header:
0x70000003 off    0x000000000000137b vaddr 0x0000000000000000 paddr 0x0000000000000000 align 2**0
         filesz 0x0000000000000050 memsz 0x0000000000000000 flags r--
    LOAD off    0x0000000000000000 vaddr 0x0000000000010000 paddr 0x0000000000010000 align 2**12
         filesz 0x0000000000001360 memsz 0x0000000000001360 flags r-x
   STACK off    0x0000000000000000 vaddr 0x0000000000000000 paddr 0x0000000000000000 align 2**4
         filesz 0x0000000000000000 memsz 0x0000000000000000 flags rw-

Sections:
Idx Name          Size      VMA               LMA               File off  Algn
  0 .text         00000210  00000000000100e8  00000000000100e8  000000e8  2**2
                  CONTENTS, ALLOC, LOAD, READONLY, CODE
  1 .eh_frame     00000050  00000000000102f8  00000000000102f8  000002f8  2**3
                  CONTENTS, ALLOC, LOAD, READONLY, DATA
  2 .sdata        00000018  0000000000011348  0000000000011348  00001348  2**2
                  CONTENTS, ALLOC, LOAD, READONLY, DATA
  3 .comment      0000001b  0000000000000000  0000000000000000  00001360  2**0
                  CONTENTS, READONLY
  4 .riscv.attributes 00000050  0000000000000000  0000000000000000  0000137b  2**0
                  CONTENTS, READONLY
SYMBOL TABLE:
00000000000100e8 l    d  .text	0000000000000000 .text
00000000000102f8 l    d  .eh_frame	0000000000000000 .eh_frame
0000000000011348 l    d  .sdata	0000000000000000 .sdata
0000000000000000 l    d  .comment	0000000000000000 .comment
0000000000000000 l    d  .riscv.attributes	0000000000000000 .riscv.attributes
0000000000000000 l    df *ABS*	0000000000000000 main.cpp
0000000000011b48 g       *ABS*	0000000000000000 __global_pointer$
0000000000011348 g       .sdata	0000000000000000 __SDATA_BEGIN__
0000000000011360 g       .sdata	0000000000000000 __BSS_END__
0000000000011360 g       .sdata	0000000000000000 __bss_start
00000000000100e8 g     F .text	0000000000000210 main
0000000000011348 g       .sdata	0000000000000000 __DATA_BEGIN__
0000000000011360 g       .sdata	0000000000000000 _edata
0000000000011360 g       .sdata	0000000000000000 _end



Disassembly of section .text:

00000000000100e8 <main>:
   100e8:	0000078b          	fchthrd	a5
   100ec:	10802603          	lw	a2,264(zero) # 108 <main-0xffe0>
   100f0:	11c02703          	lw	a4,284(zero) # 11c <main-0xffcc>
   100f4:	0007879b          	sext.w	a5,a5
   100f8:	00e606bb          	addw	a3,a2,a4
   100fc:	1ed7fa63          	bgeu	a5,a3,102f0 <main+0x208>
   10100:	fe010113          	addi	sp,sp,-32
   10104:	00011537          	lui	a0,0x11
   10108:	000116b7          	lui	a3,0x11
   1010c:	000115b7          	lui	a1,0x11
   10110:	01212a27          	fsw	fs2,20(sp)
   10114:	01312827          	fsw	fs3,16(sp)
   10118:	34c6a907          	flw	fs2,844(a3) # 1134c <__DATA_BEGIN__+0x4>
   1011c:	34852987          	flw	fs3,840(a0) # 11348 <__DATA_BEGIN__>
   10120:	00011337          	lui	t1,0x11
   10124:	000118b7          	lui	a7,0x11
   10128:	00011837          	lui	a6,0x11
   1012c:	3545a807          	flw	fa6,852(a1) # 11354 <__DATA_BEGIN__+0xc>
   10130:	100005b7          	lui	a1,0x10000
   10134:	35832587          	flw	fa1,856(t1) # 11358 <__DATA_BEGIN__+0x10>
   10138:	35c8a707          	flw	fa4,860(a7) # 1135c <__DATA_BEGIN__+0x14>
   1013c:	35082887          	flw	fa7,848(a6) # 11350 <__DATA_BEGIN__+0x8>
   10140:	00812e27          	fsw	fs0,28(sp)
   10144:	00912c27          	fsw	fs1,24(sp)
   10148:	01b12627          	fsw	fs11,12(sp)
   1014c:	fff58893          	addi	a7,a1,-1 # fffffff <__global_pointer$+0xffee4b7>
   10150:	fff00813          	li	a6,-1
   10154:	ff000337          	lui	t1,0xff000
   10158:	08000e37          	lui	t3,0x8000
   1015c:	08e7e263          	bltu	a5,a4,101e0 <main+0xf8>
   10160:	40e7873b          	subw	a4,a5,a4
   10164:	00c7e463          	bltu	a5,a2,1016c <main+0x84>
   10168:	01c76733          	or	a4,a4,t3
   1016c:	18803683          	ld	a3,392(zero) # 188 <main-0xff60>
   10170:	02071613          	slli	a2,a4,0x20
   10174:	01c65713          	srli	a4,a2,0x1c
   10178:	00e68733          	add	a4,a3,a4
   1017c:	00074d8b          	lhit	fs11,0(a4)
   10180:	e00f06d3          	fmv.x.w	a3,ft10
   10184:	e00f8753          	fmv.x.w	a4,ft11
   10188:	ff000637          	lui	a2,0xff000
   1018c:	0006869b          	sext.w	a3,a3
   10190:	0007071b          	sext.w	a4,a4
   10194:	03068863          	beq	a3,a6,101c4 <main+0xdc>
   10198:	00a6961b          	slliw	a2,a3,0xa
   1019c:	00d6063b          	addw	a2,a2,a3
   101a0:	0066569b          	srliw	a3,a2,0x6
   101a4:	00c6c6b3          	xor	a3,a3,a2
   101a8:	0036961b          	slliw	a2,a3,0x3
   101ac:	00d6063b          	addw	a2,a2,a3
   101b0:	00b6569b          	srliw	a3,a2,0xb
   101b4:	00c6c6b3          	xor	a3,a3,a2
   101b8:	00f6961b          	slliw	a2,a3,0xf
   101bc:	00d6063b          	addw	a2,a2,a3
   101c0:	00666633          	or	a2,a2,t1
   101c4:	11003683          	ld	a3,272(zero) # 110 <main-0xffd8>
   101c8:	02071e93          	slli	t4,a4,0x20
   101cc:	01eed713          	srli	a4,t4,0x1e
   101d0:	00e68733          	add	a4,a3,a4
   101d4:	00c72023          	sw	a2,0(a4)
   101d8:	10802603          	lw	a2,264(zero) # 108 <main-0xffe0>
   101dc:	11c02703          	lw	a4,284(zero) # 11c <main-0xffcc>
   101e0:	06c7f063          	bgeu	a5,a2,10240 <main+0x158>
   101e4:	12004683          	lbu	a3,288(zero) # 120 <main-0xffc8>
   101e8:	08068463          	beqz	a3,10270 <main+0x188>
   101ec:	17003683          	ld	a3,368(zero) # 170 <main-0xff78>
   101f0:	02079f13          	slli	t5,a5,0x20
   101f4:	01bf5e93          	srli	t4,t5,0x1b
   101f8:	01d686b3          	add	a3,a3,t4
   101fc:	0006a007          	flw	ft0,0(a3)
   10200:	0046a087          	flw	ft1,4(a3)
   10204:	0086a107          	flw	ft2,8(a3)
   10208:	00c6a187          	flw	ft3,12(a3)
   1020c:	0106a207          	flw	ft4,16(a3)
   10210:	0146a287          	flw	ft5,20(a3)
   10214:	0186a307          	flw	ft6,24(a3)
   10218:	01c6a387          	flw	ft7,28(a3)
   1021c:	f00004d3          	fmv.w.x	fs1,zero
   10220:	0117f7b3          	and	a5,a5,a7
   10224:	00b7e7b3          	or	a5,a5,a1
   10228:	f00786d3          	fmv.w.x	fa3,a5
   1022c:	20948553          	fmv.s	fa0,fs1
   10230:	20948653          	fmv.s	fa2,fs1
   10234:	209487d3          	fmv.s	fa5,fs1
   10238:	34852407          	flw	fs0,840(a0)
   1023c:	1000200b          	swi	ft0,256(zero) # 100 <main-0xffe8>
   10240:	0000078b          	fchthrd	a5
   10244:	0007879b          	sext.w	a5,a5
   10248:	00c706bb          	addw	a3,a4,a2
   1024c:	f0d7e8e3          	bltu	a5,a3,1015c <main+0x74>
   10250:	01c12407          	flw	fs0,28(sp)
   10254:	01812487          	flw	fs1,24(sp)
   10258:	01412907          	flw	fs2,20(sp)
   1025c:	01012987          	flw	fs3,16(sp)
   10260:	00c12d87          	flw	fs11,12(sp)
   10264:	00000513          	li	a0,0
   10268:	02010113          	addi	sp,sp,32
   1026c:	00008067          	ret
   10270:	10002683          	lw	a3,256(zero) # 100 <main-0xffe8>
   10274:	12802407          	flw	fs0,296(zero) # 128 <main-0xffc0>
   10278:	15c02307          	flw	ft6,348(zero) # 15c <main-0xff8c>
   1027c:	02d7febb          	remuw	t4,a5,a3
   10280:	13c02607          	flw	fa2,316(zero) # 13c <main-0xffac>
   10284:	15402f87          	flw	ft11,340(zero) # 154 <main-0xff94>
   10288:	14002687          	flw	fa3,320(zero) # 140 <main-0xffa8>
   1028c:	15802f07          	flw	ft10,344(zero) # 158 <main-0xff90>
   10290:	14402e87          	flw	ft9,324(zero) # 144 <main-0xffa4>
   10294:	12c02e07          	flw	ft8,300(zero) # 12c <main-0xffbc>
   10298:	14802207          	flw	ft4,328(zero) # 148 <main-0xffa0>
   1029c:	14c02287          	flw	ft5,332(zero) # 14c <main-0xff9c>
   102a0:	15002507          	flw	fa0,336(zero) # 150 <main-0xff98>
   102a4:	13002007          	flw	ft0,304(zero) # 130 <main-0xffb8>
   102a8:	13402087          	flw	ft1,308(zero) # 134 <main-0xffb4>
   102ac:	13802107          	flw	ft2,312(zero) # 138 <main-0xffb0>
   102b0:	213983d3          	fmv.s	ft7,fs3
   102b4:	212901d3          	fmv.s	ft3,fs2
   102b8:	02d7d6bb          	divuw	a3,a5,a3
   102bc:	d01ef7d3          	fcvt.s.wu	fa5,t4
   102c0:	0117f7d3          	fadd.s	fa5,fa5,fa7
   102c4:	8087f7c3          	fmadd.s	fa5,fa5,fs0,fa6
   102c8:	f8c7f647          	fmsub.s	fa2,fa5,fa2,ft11
   102cc:	f0d7f6c7          	fmsub.s	fa3,fa5,fa3,ft10
   102d0:	31d7f7c7          	fmsub.s	fa5,fa5,ft9,ft6
   102d4:	d016f353          	fcvt.s.wu	ft6,a3
   102d8:	01137353          	fadd.s	ft6,ft6,fa7
   102dc:	81c37343          	fmadd.s	ft6,ft6,ft8,fa6
   102e0:	60437243          	fmadd.s	ft4,ft6,ft4,fa2
   102e4:	685372c3          	fmadd.s	ft5,ft6,ft5,fa3
   102e8:	78a37343          	fmadd.s	ft6,ft6,fa0,fa5
   102ec:	f31ff06f          	j	1021c <main+0x134>
   102f0:	00000513          	li	a0,0
   102f4:	00008067          	ret
